
TempMonitor2.elf:     file format elf32-avr

Sections:
Idx Name          Size      VMA       LMA       File off  Algn
  0 .data         0000001c  00800100  00002602  00002696  2**0
                  CONTENTS, ALLOC, LOAD, DATA
  1 .text         00002602  00000000  00000000  00000094  2**1
                  CONTENTS, ALLOC, LOAD, READONLY, CODE
  2 .bss          00000149  0080011c  0080011c  000026b2  2**0
                  ALLOC

Disassembly of section .text:

00000000 <__vectors>:
       0:	0c 94 ab 00 	jmp	0x156	; 0x156 <__ctors_end>
       4:	0c 94 c8 00 	jmp	0x190	; 0x190 <__bad_interrupt>
       8:	0c 94 c8 00 	jmp	0x190	; 0x190 <__bad_interrupt>
       c:	0c 94 c8 00 	jmp	0x190	; 0x190 <__bad_interrupt>
      10:	0c 94 c8 00 	jmp	0x190	; 0x190 <__bad_interrupt>
      14:	0c 94 c8 00 	jmp	0x190	; 0x190 <__bad_interrupt>
      18:	0c 94 c8 00 	jmp	0x190	; 0x190 <__bad_interrupt>
      1c:	0c 94 c8 00 	jmp	0x190	; 0x190 <__bad_interrupt>
      20:	0c 94 c8 00 	jmp	0x190	; 0x190 <__bad_interrupt>
      24:	0c 94 c8 00 	jmp	0x190	; 0x190 <__bad_interrupt>
      28:	0c 94 c8 00 	jmp	0x190	; 0x190 <__bad_interrupt>
      2c:	0c 94 c8 00 	jmp	0x190	; 0x190 <__bad_interrupt>
      30:	0c 94 c8 00 	jmp	0x190	; 0x190 <__bad_interrupt>
      34:	0c 94 c8 00 	jmp	0x190	; 0x190 <__bad_interrupt>
      38:	0c 94 c8 00 	jmp	0x190	; 0x190 <__bad_interrupt>
      3c:	0c 94 c8 00 	jmp	0x190	; 0x190 <__bad_interrupt>
      40:	0c 94 c8 00 	jmp	0x190	; 0x190 <__bad_interrupt>
      44:	0c 94 c8 00 	jmp	0x190	; 0x190 <__bad_interrupt>
      48:	0c 94 ca 00 	jmp	0x194	; 0x194 <__vector_18>
      4c:	0c 94 f6 00 	jmp	0x1ec	; 0x1ec <__vector_19>
      50:	0c 94 c8 00 	jmp	0x190	; 0x190 <__bad_interrupt>
      54:	0c 94 c8 00 	jmp	0x190	; 0x190 <__bad_interrupt>
      58:	0c 94 c8 00 	jmp	0x190	; 0x190 <__bad_interrupt>
      5c:	0c 94 c8 00 	jmp	0x190	; 0x190 <__bad_interrupt>
      60:	0c 94 c8 00 	jmp	0x190	; 0x190 <__bad_interrupt>
      64:	0c 94 c8 00 	jmp	0x190	; 0x190 <__bad_interrupt>

00000068 <__c.1687>:
      68:	68 65 6c 70 00                                      help.

0000006d <__c.1683>:
      6d:	2d 3e 00                                            ->.

00000070 <__c.1653>:
      70:	0a 00                                               ..

00000072 <__c.1651>:
      72:	25 2d 31 32 73 00                                   %-12s.

00000078 <__c.1855>:
      78:	0a 2d 2d 2d 2d 2d 20 53 74 61 72 74 69 6e 67 20     .----- Starting 
      88:	54 65 6d 70 65 72 61 74 75 72 4d 6f 6e 69 74 6f     TemperaturMonito
      98:	72 20 2d 2d 2d 2d 2d 0a 00                          r -----..

000000a1 <__c.1850>:
      a1:	4c 43 44 3a 20 4b 61 6c 6c 65 0a 00                 LCD: Kalle..

000000ad <__c.1848>:
      ad:	54 65 73 74 69 6e 67 20 4c 43 44 0a 00              Testing LCD..

000000ba <__c.1828>:
      ba:	25 33 2e 31 64 20 25 33 2e 31 64 20 25 33 2e 31     %3.1d %3.1d %3.1
      ca:	64 20 25 33 2e 31 64 20 20 25 33 2e 31 64 20 25     d %3.1d  %3.1d %
      da:	33 2e 31 64 20 25 33 2e 31 64 20 25 33 2e 31 64     3.1d %3.1d %3.1d
      ea:	20 20 25 33 2e 31 64 20 25 33 2e 31 64 20 25 33       %3.1d %3.1d %3
      fa:	2e 31 64 20 25 33 2e 31 64 20 0a 00                 .1d %3.1d ..

00000106 <__c.1817>:
     106:	0a 20 20 20 20 20 20 43 75 72 72 65 6e 74 20 20     .      Current  
     116:	20 20 20 20 20 20 20 20 20 20 20 20 20 20 4d 69                   Mi
     126:	6e 20 20 20 20 20 20 20 20 20 20 20 20 20 20 20     n               
     136:	20 20 20 4d 61 78 0a 00                                Max..

0000013e <__c.1803>:
     13e:	25 33 2e 31 64 00                                   %3.1d.

00000144 <__c.1801>:
     144:	20 2d 2d 2d 00                                       ---.

00000149 <__c.1797>:
     149:	54 65 6d 70 20 4d 6f 6e 69 74 6f 72 00              Temp Monitor.

00000156 <__ctors_end>:
     156:	11 24       	eor	r1, r1
     158:	1f be       	out	0x3f, r1	; 63
     15a:	cf ef       	ldi	r28, 0xFF	; 255
     15c:	d4 e0       	ldi	r29, 0x04	; 4
     15e:	de bf       	out	0x3e, r29	; 62
     160:	cd bf       	out	0x3d, r28	; 61

00000162 <__do_copy_data>:
     162:	11 e0       	ldi	r17, 0x01	; 1
     164:	a0 e0       	ldi	r26, 0x00	; 0
     166:	b1 e0       	ldi	r27, 0x01	; 1
     168:	e2 e0       	ldi	r30, 0x02	; 2
     16a:	f6 e2       	ldi	r31, 0x26	; 38
     16c:	02 c0       	rjmp	.+4      	; 0x172 <.do_copy_data_start>

0000016e <.do_copy_data_loop>:
     16e:	05 90       	lpm	r0, Z+
     170:	0d 92       	st	X+, r0

00000172 <.do_copy_data_start>:
     172:	ac 31       	cpi	r26, 0x1C	; 28
     174:	b1 07       	cpc	r27, r17
     176:	d9 f7       	brne	.-10     	; 0x16e <.do_copy_data_loop>

00000178 <__do_clear_bss>:
     178:	12 e0       	ldi	r17, 0x02	; 2
     17a:	ac e1       	ldi	r26, 0x1C	; 28
     17c:	b1 e0       	ldi	r27, 0x01	; 1
     17e:	01 c0       	rjmp	.+2      	; 0x182 <.do_clear_bss_start>

00000180 <.do_clear_bss_loop>:
     180:	1d 92       	st	X+, r1

00000182 <.do_clear_bss_start>:
     182:	a5 36       	cpi	r26, 0x65	; 101
     184:	b1 07       	cpc	r27, r17
     186:	e1 f7       	brne	.-8      	; 0x180 <.do_clear_bss_loop>
     188:	0e 94 f0 04 	call	0x9e0	; 0x9e0 <main>
     18c:	0c 94 ff 12 	jmp	0x25fe	; 0x25fe <_exit>

00000190 <__bad_interrupt>:
     190:	0c 94 00 00 	jmp	0	; 0x0 <__vectors>

00000194 <__vector_18>:
     194:	1f 92       	push	r1
     196:	0f 92       	push	r0
     198:	0f b6       	in	r0, 0x3f	; 63
     19a:	0f 92       	push	r0
     19c:	11 24       	eor	r1, r1
     19e:	2f 93       	push	r18
     1a0:	8f 93       	push	r24
     1a2:	9f 93       	push	r25
     1a4:	ef 93       	push	r30
     1a6:	ff 93       	push	r31
     1a8:	90 91 c0 00 	lds	r25, 0x00C0
     1ac:	20 91 c6 00 	lds	r18, 0x00C6
     1b0:	e0 91 5e 01 	lds	r30, 0x015E
     1b4:	ef 5f       	subi	r30, 0xFF	; 255
     1b6:	ef 71       	andi	r30, 0x1F	; 31
     1b8:	80 91 5f 01 	lds	r24, 0x015F
     1bc:	e8 17       	cp	r30, r24
     1be:	11 f4       	brne	.+4      	; 0x1c4 <__vector_18+0x30>
     1c0:	82 e0       	ldi	r24, 0x02	; 2
     1c2:	08 c0       	rjmp	.+16     	; 0x1d4 <__vector_18+0x40>
     1c4:	89 2f       	mov	r24, r25
     1c6:	88 71       	andi	r24, 0x18	; 24
     1c8:	e0 93 5e 01 	sts	0x015E, r30
     1cc:	f0 e0       	ldi	r31, 0x00	; 0
     1ce:	e4 5c       	subi	r30, 0xC4	; 196
     1d0:	fe 4f       	sbci	r31, 0xFE	; 254
     1d2:	20 83       	st	Z, r18
     1d4:	80 93 60 01 	sts	0x0160, r24
     1d8:	ff 91       	pop	r31
     1da:	ef 91       	pop	r30
     1dc:	9f 91       	pop	r25
     1de:	8f 91       	pop	r24
     1e0:	2f 91       	pop	r18
     1e2:	0f 90       	pop	r0
     1e4:	0f be       	out	0x3f, r0	; 63
     1e6:	0f 90       	pop	r0
     1e8:	1f 90       	pop	r1
     1ea:	18 95       	reti

000001ec <__vector_19>:
     1ec:	1f 92       	push	r1
     1ee:	0f 92       	push	r0
     1f0:	0f b6       	in	r0, 0x3f	; 63
     1f2:	0f 92       	push	r0
     1f4:	11 24       	eor	r1, r1
     1f6:	8f 93       	push	r24
     1f8:	9f 93       	push	r25
     1fa:	ef 93       	push	r30
     1fc:	ff 93       	push	r31
     1fe:	90 91 5c 01 	lds	r25, 0x015C
     202:	80 91 5d 01 	lds	r24, 0x015D
     206:	98 17       	cp	r25, r24
     208:	69 f0       	breq	.+26     	; 0x224 <__vector_19+0x38>
     20a:	e0 91 5d 01 	lds	r30, 0x015D
     20e:	ef 5f       	subi	r30, 0xFF	; 255
     210:	ef 71       	andi	r30, 0x1F	; 31
     212:	e0 93 5d 01 	sts	0x015D, r30
     216:	f0 e0       	ldi	r31, 0x00	; 0
     218:	e4 5e       	subi	r30, 0xE4	; 228
     21a:	fe 4f       	sbci	r31, 0xFE	; 254
     21c:	80 81       	ld	r24, Z
     21e:	80 93 c6 00 	sts	0x00C6, r24
     222:	05 c0       	rjmp	.+10     	; 0x22e <__vector_19+0x42>
     224:	80 91 c1 00 	lds	r24, 0x00C1
     228:	8f 7d       	andi	r24, 0xDF	; 223
     22a:	80 93 c1 00 	sts	0x00C1, r24
     22e:	ff 91       	pop	r31
     230:	ef 91       	pop	r30
     232:	9f 91       	pop	r25
     234:	8f 91       	pop	r24
     236:	0f 90       	pop	r0
     238:	0f be       	out	0x3f, r0	; 63
     23a:	0f 90       	pop	r0
     23c:	1f 90       	pop	r1
     23e:	18 95       	reti

00000240 <uart_init>:
     240:	9c 01       	movw	r18, r24
     242:	10 92 5c 01 	sts	0x015C, r1
     246:	10 92 5d 01 	sts	0x015D, r1
     24a:	10 92 5e 01 	sts	0x015E, r1
     24e:	10 92 5f 01 	sts	0x015F, r1
     252:	97 ff       	sbrs	r25, 7
     254:	04 c0       	rjmp	.+8      	; 0x25e <uart_init+0x1e>
     256:	82 e0       	ldi	r24, 0x02	; 2
     258:	80 93 c0 00 	sts	0x00C0, r24
     25c:	3f 77       	andi	r19, 0x7F	; 127
     25e:	30 93 c5 00 	sts	0x00C5, r19
     262:	20 93 c4 00 	sts	0x00C4, r18
     266:	88 e9       	ldi	r24, 0x98	; 152
     268:	80 93 c1 00 	sts	0x00C1, r24
     26c:	86 e0       	ldi	r24, 0x06	; 6
     26e:	80 93 c2 00 	sts	0x00C2, r24
     272:	08 95       	ret

00000274 <uart_getc>:
     274:	90 91 5e 01 	lds	r25, 0x015E
     278:	80 91 5f 01 	lds	r24, 0x015F
     27c:	98 17       	cp	r25, r24
     27e:	19 f4       	brne	.+6      	; 0x286 <uart_getc+0x12>
     280:	20 e0       	ldi	r18, 0x00	; 0
     282:	31 e0       	ldi	r19, 0x01	; 1
     284:	12 c0       	rjmp	.+36     	; 0x2aa <uart_getc+0x36>
     286:	e0 91 5f 01 	lds	r30, 0x015F
     28a:	ef 5f       	subi	r30, 0xFF	; 255
     28c:	ef 71       	andi	r30, 0x1F	; 31
     28e:	e0 93 5f 01 	sts	0x015F, r30
     292:	f0 e0       	ldi	r31, 0x00	; 0
     294:	e4 5c       	subi	r30, 0xC4	; 196
     296:	fe 4f       	sbci	r31, 0xFE	; 254
     298:	30 81       	ld	r19, Z
     29a:	20 91 60 01 	lds	r18, 0x0160
     29e:	92 2f       	mov	r25, r18
     2a0:	80 e0       	ldi	r24, 0x00	; 0
     2a2:	ac 01       	movw	r20, r24
     2a4:	43 0f       	add	r20, r19
     2a6:	51 1d       	adc	r21, r1
     2a8:	9a 01       	movw	r18, r20
     2aa:	c9 01       	movw	r24, r18
     2ac:	08 95       	ret

000002ae <uart_putc>:
     2ae:	28 2f       	mov	r18, r24
     2b0:	90 91 5c 01 	lds	r25, 0x015C
     2b4:	9f 5f       	subi	r25, 0xFF	; 255
     2b6:	9f 71       	andi	r25, 0x1F	; 31
     2b8:	80 91 5d 01 	lds	r24, 0x015D
     2bc:	98 17       	cp	r25, r24
     2be:	e1 f3       	breq	.-8      	; 0x2b8 <uart_putc+0xa>
     2c0:	e9 2f       	mov	r30, r25
     2c2:	f0 e0       	ldi	r31, 0x00	; 0
     2c4:	e4 5e       	subi	r30, 0xE4	; 228
     2c6:	fe 4f       	sbci	r31, 0xFE	; 254
     2c8:	20 83       	st	Z, r18
     2ca:	90 93 5c 01 	sts	0x015C, r25
     2ce:	80 91 c1 00 	lds	r24, 0x00C1
     2d2:	80 62       	ori	r24, 0x20	; 32
     2d4:	80 93 c1 00 	sts	0x00C1, r24
     2d8:	08 95       	ret

000002da <uart_puts>:
     2da:	cf 93       	push	r28
     2dc:	df 93       	push	r29
     2de:	ec 01       	movw	r28, r24
     2e0:	03 c0       	rjmp	.+6      	; 0x2e8 <uart_puts+0xe>
     2e2:	21 96       	adiw	r28, 0x01	; 1
     2e4:	0e 94 57 01 	call	0x2ae	; 0x2ae <uart_putc>
     2e8:	88 81       	ld	r24, Y
     2ea:	88 23       	and	r24, r24
     2ec:	d1 f7       	brne	.-12     	; 0x2e2 <uart_puts+0x8>
     2ee:	df 91       	pop	r29
     2f0:	cf 91       	pop	r28
     2f2:	08 95       	ret

000002f4 <uart_puts_p>:
     2f4:	cf 93       	push	r28
     2f6:	df 93       	push	r29
     2f8:	ec 01       	movw	r28, r24
     2fa:	02 c0       	rjmp	.+4      	; 0x300 <uart_puts_p+0xc>
     2fc:	0e 94 57 01 	call	0x2ae	; 0x2ae <uart_putc>
     300:	fe 01       	movw	r30, r28
     302:	21 96       	adiw	r28, 0x01	; 1
     304:	84 91       	lpm	r24, Z+
     306:	88 23       	and	r24, r24
     308:	c9 f7       	brne	.-14     	; 0x2fc <uart_puts_p+0x8>
     30a:	df 91       	pop	r29
     30c:	cf 91       	pop	r28
     30e:	08 95       	ret

00000310 <uart_available>:
     310:	80 91 5e 01 	lds	r24, 0x015E
     314:	20 91 5f 01 	lds	r18, 0x015F
     318:	90 e0       	ldi	r25, 0x00	; 0
     31a:	4f 96       	adiw	r24, 0x1f	; 31
     31c:	82 1b       	sub	r24, r18
     31e:	91 09       	sbc	r25, r1
     320:	6f e1       	ldi	r22, 0x1F	; 31
     322:	70 e0       	ldi	r23, 0x00	; 0
     324:	0e 94 a3 0f 	call	0x1f46	; 0x1f46 <__divmodhi4>
     328:	08 95       	ret

0000032a <uart_flush>:
     32a:	80 91 5f 01 	lds	r24, 0x015F
     32e:	80 93 5e 01 	sts	0x015E, r24
     332:	08 95       	ret

00000334 <getChar>:
     334:	0e 94 3a 01 	call	0x274	; 0x274 <uart_getc>
     338:	9c 01       	movw	r18, r24
     33a:	81 e0       	ldi	r24, 0x01	; 1
     33c:	20 30       	cpi	r18, 0x00	; 0
     33e:	38 07       	cpc	r19, r24
     340:	c9 f3       	breq	.-14     	; 0x334 <getChar>
     342:	82 2f       	mov	r24, r18
     344:	08 95       	ret

00000346 <printCommands>:
     346:	cf 92       	push	r12
     348:	df 92       	push	r13
     34a:	ef 92       	push	r14
     34c:	ff 92       	push	r15
     34e:	0f 93       	push	r16
     350:	1f 93       	push	r17
     352:	cf 93       	push	r28
     354:	df 93       	push	r29
     356:	fc 01       	movw	r30, r24
     358:	45 91       	lpm	r20, Z+
     35a:	54 91       	lpm	r21, Z+
     35c:	ec 01       	movw	r28, r24
     35e:	91 eb       	ldi	r25, 0xB1	; 177
     360:	c9 2e       	mov	r12, r25
     362:	91 e0       	ldi	r25, 0x01	; 1
     364:	d9 2e       	mov	r13, r25
     366:	82 e7       	ldi	r24, 0x72	; 114
     368:	e8 2e       	mov	r14, r24
     36a:	80 e0       	ldi	r24, 0x00	; 0
     36c:	f8 2e       	mov	r15, r24
     36e:	00 e7       	ldi	r16, 0x70	; 112
     370:	10 e0       	ldi	r17, 0x00	; 0
     372:	25 c0       	rjmp	.+74     	; 0x3be <printCommands+0x78>
     374:	ac 97       	sbiw	r28, 0x2c	; 44
     376:	81 eb       	ldi	r24, 0xB1	; 177
     378:	91 e0       	ldi	r25, 0x01	; 1
     37a:	be 01       	movw	r22, r28
     37c:	0e 94 e1 0f 	call	0x1fc2	; 0x1fc2 <strcpy_P>
     380:	00 d0       	rcall	.+0      	; 0x382 <printCommands+0x3c>
     382:	00 d0       	rcall	.+0      	; 0x384 <printCommands+0x3e>
     384:	ed b7       	in	r30, 0x3d	; 61
     386:	fe b7       	in	r31, 0x3e	; 62
     388:	f2 82       	std	Z+2, r15	; 0x02
     38a:	e1 82       	std	Z+1, r14	; 0x01
     38c:	d4 82       	std	Z+4, r13	; 0x04
     38e:	c3 82       	std	Z+3, r12	; 0x03
     390:	0e 94 fd 0f 	call	0x1ffa	; 0x1ffa <printf_P>
     394:	0f 90       	pop	r0
     396:	0f 90       	pop	r0
     398:	2c 96       	adiw	r28, 0x0c	; 12
     39a:	ed b7       	in	r30, 0x3d	; 61
     39c:	fe b7       	in	r31, 0x3e	; 62
     39e:	d2 83       	std	Z+2, r29	; 0x02
     3a0:	c1 83       	std	Z+1, r28	; 0x01
     3a2:	a0 96       	adiw	r28, 0x20	; 32
     3a4:	0e 94 fd 0f 	call	0x1ffa	; 0x1ffa <printf_P>
     3a8:	ed b7       	in	r30, 0x3d	; 61
     3aa:	fe b7       	in	r31, 0x3e	; 62
     3ac:	12 83       	std	Z+2, r17	; 0x02
     3ae:	01 83       	std	Z+1, r16	; 0x01
     3b0:	0e 94 fd 0f 	call	0x1ffa	; 0x1ffa <printf_P>
     3b4:	fe 01       	movw	r30, r28
     3b6:	45 91       	lpm	r20, Z+
     3b8:	54 91       	lpm	r21, Z+
     3ba:	0f 90       	pop	r0
     3bc:	0f 90       	pop	r0
     3be:	ae 96       	adiw	r28, 0x2e	; 46
     3c0:	45 2b       	or	r20, r21
     3c2:	c1 f6       	brne	.-80     	; 0x374 <printCommands+0x2e>
     3c4:	df 91       	pop	r29
     3c6:	cf 91       	pop	r28
     3c8:	1f 91       	pop	r17
     3ca:	0f 91       	pop	r16
     3cc:	ff 90       	pop	r15
     3ce:	ef 90       	pop	r14
     3d0:	df 90       	pop	r13
     3d2:	cf 90       	pop	r12
     3d4:	08 95       	ret

000003d6 <commandInterpreter>:
     3d6:	4f 92       	push	r4
     3d8:	5f 92       	push	r5
     3da:	6f 92       	push	r6
     3dc:	7f 92       	push	r7
     3de:	8f 92       	push	r8
     3e0:	9f 92       	push	r9
     3e2:	af 92       	push	r10
     3e4:	bf 92       	push	r11
     3e6:	cf 92       	push	r12
     3e8:	df 92       	push	r13
     3ea:	ef 92       	push	r14
     3ec:	ff 92       	push	r15
     3ee:	0f 93       	push	r16
     3f0:	1f 93       	push	r17
     3f2:	df 93       	push	r29
     3f4:	cf 93       	push	r28
     3f6:	cd b7       	in	r28, 0x3d	; 61
     3f8:	de b7       	in	r29, 0x3e	; 62
     3fa:	60 97       	sbiw	r28, 0x10	; 16
     3fc:	0f b6       	in	r0, 0x3f	; 63
     3fe:	f8 94       	cli
     400:	de bf       	out	0x3e, r29	; 62
     402:	0f be       	out	0x3f, r0	; 63
     404:	cd bf       	out	0x3d, r28	; 61
     406:	4c 01       	movw	r8, r24
     408:	fc 01       	movw	r30, r24
     40a:	2d e6       	ldi	r18, 0x6D	; 109
     40c:	42 2e       	mov	r4, r18
     40e:	20 e0       	ldi	r18, 0x00	; 0
     410:	52 2e       	mov	r5, r18
     412:	5e 01       	movw	r10, r28
     414:	08 94       	sec
     416:	a1 1c       	adc	r10, r1
     418:	b1 1c       	adc	r11, r1
     41a:	65 90       	lpm	r6, Z+
     41c:	74 90       	lpm	r7, Z+
     41e:	00 d0       	rcall	.+0      	; 0x420 <commandInterpreter+0x4a>
     420:	ed b7       	in	r30, 0x3d	; 61
     422:	fe b7       	in	r31, 0x3e	; 62
     424:	52 82       	std	Z+2, r5	; 0x02
     426:	41 82       	std	Z+1, r4	; 0x01
     428:	0e 94 fd 0f 	call	0x1ffa	; 0x1ffa <printf_P>
     42c:	ee 24       	eor	r14, r14
     42e:	ff 24       	eor	r15, r15
     430:	0f 90       	pop	r0
     432:	0f 90       	pop	r0
     434:	0e 94 9a 01 	call	0x334	; 0x334 <getChar>
     438:	18 2f       	mov	r17, r24
     43a:	c8 2e       	mov	r12, r24
     43c:	dd 24       	eor	r13, r13
     43e:	0e 94 57 01 	call	0x2ae	; 0x2ae <uart_putc>
     442:	f5 01       	movw	r30, r10
     444:	ee 0d       	add	r30, r14
     446:	ff 1d       	adc	r31, r15
     448:	10 83       	st	Z, r17
     44a:	c7 01       	movw	r24, r14
     44c:	01 96       	adiw	r24, 0x01	; 1
     44e:	fd e0       	ldi	r31, 0x0D	; 13
     450:	cf 16       	cp	r12, r31
     452:	d1 04       	cpc	r13, r1
     454:	31 f0       	breq	.+12     	; 0x462 <commandInterpreter+0x8c>
     456:	2a e0       	ldi	r18, 0x0A	; 10
     458:	c2 16       	cp	r12, r18
     45a:	d1 04       	cpc	r13, r1
     45c:	11 f0       	breq	.+4      	; 0x462 <commandInterpreter+0x8c>
     45e:	7c 01       	movw	r14, r24
     460:	e9 cf       	rjmp	.-46     	; 0x434 <commandInterpreter+0x5e>
     462:	ea 0c       	add	r14, r10
     464:	fb 1c       	adc	r15, r11
     466:	f7 01       	movw	r30, r14
     468:	10 82       	st	Z, r1
     46a:	8a e0       	ldi	r24, 0x0A	; 10
     46c:	0e 94 57 01 	call	0x2ae	; 0x2ae <uart_putc>
     470:	c5 01       	movw	r24, r10
     472:	68 e6       	ldi	r22, 0x68	; 104
     474:	70 e0       	ldi	r23, 0x00	; 0
     476:	0e 94 d8 0f 	call	0x1fb0	; 0x1fb0 <strcmp_P>
     47a:	89 2b       	or	r24, r25
     47c:	19 f4       	brne	.+6      	; 0x484 <commandInterpreter+0xae>
     47e:	c4 01       	movw	r24, r8
     480:	0e 94 a3 01 	call	0x346	; 0x346 <printCommands>
     484:	a3 01       	movw	r20, r6
     486:	84 01       	movw	r16, r8
     488:	17 c0       	rjmp	.+46     	; 0x4b8 <commandInterpreter+0xe2>
     48a:	78 01       	movw	r14, r16
     48c:	0e 5f       	subi	r16, 0xFE	; 254
     48e:	1f 4f       	sbci	r17, 0xFF	; 255
     490:	c5 01       	movw	r24, r10
     492:	b8 01       	movw	r22, r16
     494:	0e 94 d8 0f 	call	0x1fb0	; 0x1fb0 <strcmp_P>
     498:	04 5d       	subi	r16, 0xD4	; 212
     49a:	1f 4f       	sbci	r17, 0xFF	; 255
     49c:	89 2b       	or	r24, r25
     49e:	49 f4       	brne	.+18     	; 0x4b2 <commandInterpreter+0xdc>
     4a0:	f7 01       	movw	r30, r14
     4a2:	85 91       	lpm	r24, Z+
     4a4:	94 91       	lpm	r25, Z+
     4a6:	00 97       	sbiw	r24, 0x00	; 0
     4a8:	09 f4       	brne	.+2      	; 0x4ac <commandInterpreter+0xd6>
     4aa:	b9 cf       	rjmp	.-142    	; 0x41e <commandInterpreter+0x48>
     4ac:	fc 01       	movw	r30, r24
     4ae:	09 95       	icall
     4b0:	b6 cf       	rjmp	.-148    	; 0x41e <commandInterpreter+0x48>
     4b2:	f8 01       	movw	r30, r16
     4b4:	45 91       	lpm	r20, Z+
     4b6:	54 91       	lpm	r21, Z+
     4b8:	45 2b       	or	r20, r21
     4ba:	09 f4       	brne	.+2      	; 0x4be <commandInterpreter+0xe8>
     4bc:	b0 cf       	rjmp	.-160    	; 0x41e <commandInterpreter+0x48>
     4be:	e5 cf       	rjmp	.-54     	; 0x48a <commandInterpreter+0xb4>

000004c0 <lcdTest>:
     4c0:	0f 93       	push	r16
     4c2:	1f 93       	push	r17
     4c4:	cf 93       	push	r28
     4c6:	df 93       	push	r29
     4c8:	00 d0       	rcall	.+0      	; 0x4ca <lcdTest+0xa>
     4ca:	8d ea       	ldi	r24, 0xAD	; 173
     4cc:	90 e0       	ldi	r25, 0x00	; 0
     4ce:	ed b7       	in	r30, 0x3d	; 61
     4d0:	fe b7       	in	r31, 0x3e	; 62
     4d2:	92 83       	std	Z+2, r25	; 0x02
     4d4:	81 83       	std	Z+1, r24	; 0x01
     4d6:	0e 94 fd 0f 	call	0x1ffa	; 0x1ffa <printf_P>
     4da:	0f 90       	pop	r0
     4dc:	0f 90       	pop	r0
     4de:	00 e9       	ldi	r16, 0x90	; 144
     4e0:	11 e0       	ldi	r17, 0x01	; 1
     4e2:	c1 ea       	ldi	r28, 0xA1	; 161
     4e4:	d0 e0       	ldi	r29, 0x00	; 0
     4e6:	0e 94 a1 05 	call	0xb42	; 0xb42 <lcd_clrscr>
     4ea:	0e 94 a5 05 	call	0xb4a	; 0xb4a <lcd_home>
     4ee:	80 e0       	ldi	r24, 0x00	; 0
     4f0:	91 e0       	ldi	r25, 0x01	; 1
     4f2:	0e 94 c9 05 	call	0xb92	; 0xb92 <lcd_puts>
     4f6:	88 ee       	ldi	r24, 0xE8	; 232
     4f8:	93 e0       	ldi	r25, 0x03	; 3
     4fa:	f8 01       	movw	r30, r16
     4fc:	31 97       	sbiw	r30, 0x01	; 1
     4fe:	f1 f7       	brne	.-4      	; 0x4fc <lcdTest+0x3c>
     500:	01 97       	sbiw	r24, 0x01	; 1
     502:	d9 f7       	brne	.-10     	; 0x4fa <lcdTest+0x3a>
     504:	00 d0       	rcall	.+0      	; 0x506 <__stack+0x7>
     506:	ed b7       	in	r30, 0x3d	; 61
     508:	fe b7       	in	r31, 0x3e	; 62
     50a:	d2 83       	std	Z+2, r29	; 0x02
     50c:	c1 83       	std	Z+1, r28	; 0x01
     50e:	0e 94 fd 0f 	call	0x1ffa	; 0x1ffa <printf_P>
     512:	0f 90       	pop	r0
     514:	0f 90       	pop	r0
     516:	e7 cf       	rjmp	.-50     	; 0x4e6 <lcdTest+0x26>

00000518 <updateLCD>:
     518:	cf 92       	push	r12
     51a:	df 92       	push	r13
     51c:	ef 92       	push	r14
     51e:	ff 92       	push	r15
     520:	1f 93       	push	r17
     522:	cf 93       	push	r28
     524:	df 93       	push	r29
     526:	0e 94 a1 05 	call	0xb42	; 0xb42 <lcd_clrscr>
     52a:	0e 94 a5 05 	call	0xb4a	; 0xb4a <lcd_home>
     52e:	80 91 d1 01 	lds	r24, 0x01D1
     532:	88 23       	and	r24, r24
     534:	21 f0       	breq	.+8      	; 0x53e <updateLCD+0x26>
     536:	81 30       	cpi	r24, 0x01	; 1
     538:	09 f0       	breq	.+2      	; 0x53c <updateLCD+0x24>
     53a:	41 c0       	rjmp	.+130    	; 0x5be <updateLCD+0xa6>
     53c:	05 c0       	rjmp	.+10     	; 0x548 <updateLCD+0x30>
     53e:	89 e4       	ldi	r24, 0x49	; 73
     540:	91 e0       	ldi	r25, 0x01	; 1
     542:	0e 94 d5 05 	call	0xbaa	; 0xbaa <lcd_puts_p>
     546:	3b c0       	rjmp	.+118    	; 0x5be <updateLCD+0xa6>
     548:	c2 ed       	ldi	r28, 0xD2	; 210
     54a:	d1 e0       	ldi	r29, 0x01	; 1
     54c:	10 e0       	ldi	r17, 0x00	; 0
     54e:	91 e6       	ldi	r25, 0x61	; 97
     550:	e9 2e       	mov	r14, r25
     552:	91 e0       	ldi	r25, 0x01	; 1
     554:	f9 2e       	mov	r15, r25
     556:	8e e3       	ldi	r24, 0x3E	; 62
     558:	c8 2e       	mov	r12, r24
     55a:	81 e0       	ldi	r24, 0x01	; 1
     55c:	d8 2e       	mov	r13, r24
     55e:	80 e0       	ldi	r24, 0x00	; 0
     560:	61 2f       	mov	r22, r17
     562:	0e 94 8d 05 	call	0xb1a	; 0xb1a <lcd_gotoxy>
     566:	88 81       	ld	r24, Y
     568:	99 81       	ldd	r25, Y+1	; 0x01
     56a:	2c ef       	ldi	r18, 0xFC	; 252
     56c:	88 31       	cpi	r24, 0x18	; 24
     56e:	92 07       	cpc	r25, r18
     570:	29 f4       	brne	.+10     	; 0x57c <updateLCD+0x64>
     572:	84 e4       	ldi	r24, 0x44	; 68
     574:	91 e0       	ldi	r25, 0x01	; 1
     576:	0e 94 d5 05 	call	0xbaa	; 0xbaa <lcd_puts_p>
     57a:	1d c0       	rjmp	.+58     	; 0x5b6 <updateLCD+0x9e>
     57c:	00 d0       	rcall	.+0      	; 0x57e <updateLCD+0x66>
     57e:	00 d0       	rcall	.+0      	; 0x580 <updateLCD+0x68>
     580:	00 d0       	rcall	.+0      	; 0x582 <updateLCD+0x6a>
     582:	ed b7       	in	r30, 0x3d	; 61
     584:	fe b7       	in	r31, 0x3e	; 62
     586:	31 96       	adiw	r30, 0x01	; 1
     588:	ad b7       	in	r26, 0x3d	; 61
     58a:	be b7       	in	r27, 0x3e	; 62
     58c:	12 96       	adiw	r26, 0x02	; 2
     58e:	fc 92       	st	X, r15
     590:	ee 92       	st	-X, r14
     592:	11 97       	sbiw	r26, 0x01	; 1
     594:	d3 82       	std	Z+3, r13	; 0x03
     596:	c2 82       	std	Z+2, r12	; 0x02
     598:	95 83       	std	Z+5, r25	; 0x05
     59a:	84 83       	std	Z+4, r24	; 0x04
     59c:	0e 94 bc 0b 	call	0x1778	; 0x1778 <dsprintf_P>
     5a0:	8d b7       	in	r24, 0x3d	; 61
     5a2:	9e b7       	in	r25, 0x3e	; 62
     5a4:	06 96       	adiw	r24, 0x06	; 6
     5a6:	0f b6       	in	r0, 0x3f	; 63
     5a8:	f8 94       	cli
     5aa:	9e bf       	out	0x3e, r25	; 62
     5ac:	0f be       	out	0x3f, r0	; 63
     5ae:	8d bf       	out	0x3d, r24	; 61
     5b0:	c7 01       	movw	r24, r14
     5b2:	0e 94 c9 05 	call	0xb92	; 0xb92 <lcd_puts>
     5b6:	1f 5f       	subi	r17, 0xFF	; 255
     5b8:	6b 96       	adiw	r28, 0x1b	; 27
     5ba:	14 30       	cpi	r17, 0x04	; 4
     5bc:	81 f6       	brne	.-96     	; 0x55e <updateLCD+0x46>
     5be:	df 91       	pop	r29
     5c0:	cf 91       	pop	r28
     5c2:	1f 91       	pop	r17
     5c4:	ff 90       	pop	r15
     5c6:	ef 90       	pop	r14
     5c8:	df 90       	pop	r13
     5ca:	cf 90       	pop	r12
     5cc:	08 95       	ret

000005ce <updateTemperature>:
     5ce:	0f 93       	push	r16
     5d0:	1f 93       	push	r17
     5d2:	df 93       	push	r29
     5d4:	cf 93       	push	r28
     5d6:	00 d0       	rcall	.+0      	; 0x5d8 <updateTemperature+0xa>
     5d8:	0f 92       	push	r0
     5da:	cd b7       	in	r28, 0x3d	; 61
     5dc:	de b7       	in	r29, 0x3e	; 62
     5de:	18 2f       	mov	r17, r24
     5e0:	80 e1       	ldi	r24, 0x10	; 16
     5e2:	be 01       	movw	r22, r28
     5e4:	6f 5f       	subi	r22, 0xFF	; 255
     5e6:	7f 4f       	sbci	r23, 0xFF	; 255
     5e8:	ae 01       	movw	r20, r28
     5ea:	4e 5f       	subi	r20, 0xFE	; 254
     5ec:	5f 4f       	sbci	r21, 0xFF	; 255
     5ee:	9e 01       	movw	r18, r28
     5f0:	2d 5f       	subi	r18, 0xFD	; 253
     5f2:	3f 4f       	sbci	r19, 0xFF	; 255
     5f4:	0e 94 5f 0d 	call	0x1abe	; 0x1abe <DS18X20_read_meas_single>
     5f8:	88 23       	and	r24, r24
     5fa:	79 f5       	brne	.+94     	; 0x65a <updateTemperature+0x8c>
     5fc:	89 81       	ldd	r24, Y+1	; 0x01
     5fe:	6a 81       	ldd	r22, Y+2	; 0x02
     600:	4b 81       	ldd	r20, Y+3	; 0x03
     602:	0e 94 5c 0c 	call	0x18b8	; 0x18b8 <DS18X20_temp_to_decicel>
     606:	ac 01       	movw	r20, r24
     608:	89 81       	ldd	r24, Y+1	; 0x01
     60a:	88 23       	and	r24, r24
     60c:	19 f0       	breq	.+6      	; 0x614 <updateTemperature+0x46>
     60e:	50 95       	com	r21
     610:	41 95       	neg	r20
     612:	5f 4f       	sbci	r21, 0xFF	; 255
     614:	01 2f       	mov	r16, r17
     616:	10 e0       	ldi	r17, 0x00	; 0
     618:	8b e1       	ldi	r24, 0x1B	; 27
     61a:	90 e0       	ldi	r25, 0x00	; 0
     61c:	08 9f       	mul	r16, r24
     61e:	90 01       	movw	r18, r0
     620:	09 9f       	mul	r16, r25
     622:	30 0d       	add	r19, r0
     624:	18 9f       	mul	r17, r24
     626:	30 0d       	add	r19, r0
     628:	11 24       	eor	r1, r1
     62a:	d9 01       	movw	r26, r18
     62c:	ae 52       	subi	r26, 0x2E	; 46
     62e:	be 4f       	sbci	r27, 0xFE	; 254
     630:	56 96       	adiw	r26, 0x16	; 22
     632:	8c 91       	ld	r24, X
     634:	56 97       	sbiw	r26, 0x16	; 22
     636:	e8 2f       	mov	r30, r24
     638:	f0 e0       	ldi	r31, 0x00	; 0
     63a:	31 96       	adiw	r30, 0x01	; 1
     63c:	ee 0f       	add	r30, r30
     63e:	ff 1f       	adc	r31, r31
     640:	e2 0f       	add	r30, r18
     642:	f3 1f       	adc	r31, r19
     644:	ee 52       	subi	r30, 0x2E	; 46
     646:	fe 4f       	sbci	r31, 0xFE	; 254
     648:	51 83       	std	Z+1, r21	; 0x01
     64a:	40 83       	st	Z, r20
     64c:	8f 5f       	subi	r24, 0xFF	; 255
     64e:	56 96       	adiw	r26, 0x16	; 22
     650:	8c 93       	st	X, r24
     652:	56 97       	sbiw	r26, 0x16	; 22
     654:	8a 30       	cpi	r24, 0x0A	; 10
     656:	f0 f4       	brcc	.+60     	; 0x694 <updateTemperature+0xc6>
     658:	1f c0       	rjmp	.+62     	; 0x698 <updateTemperature+0xca>
     65a:	21 2f       	mov	r18, r17
     65c:	30 e0       	ldi	r19, 0x00	; 0
     65e:	8b e1       	ldi	r24, 0x1B	; 27
     660:	90 e0       	ldi	r25, 0x00	; 0
     662:	ac 01       	movw	r20, r24
     664:	24 9f       	mul	r18, r20
     666:	c0 01       	movw	r24, r0
     668:	25 9f       	mul	r18, r21
     66a:	90 0d       	add	r25, r0
     66c:	34 9f       	mul	r19, r20
     66e:	90 0d       	add	r25, r0
     670:	11 24       	eor	r1, r1
     672:	fc 01       	movw	r30, r24
     674:	ee 52       	subi	r30, 0x2E	; 46
     676:	fe 4f       	sbci	r31, 0xFE	; 254
     678:	e6 89       	ldd	r30, Z+22	; 0x16
     67a:	f0 e0       	ldi	r31, 0x00	; 0
     67c:	31 96       	adiw	r30, 0x01	; 1
     67e:	ee 0f       	add	r30, r30
     680:	ff 1f       	adc	r31, r31
     682:	e8 0f       	add	r30, r24
     684:	f9 1f       	adc	r31, r25
     686:	ee 52       	subi	r30, 0x2E	; 46
     688:	fe 4f       	sbci	r31, 0xFE	; 254
     68a:	88 e1       	ldi	r24, 0x18	; 24
     68c:	9c ef       	ldi	r25, 0xFC	; 252
     68e:	91 83       	std	Z+1, r25	; 0x01
     690:	80 83       	st	Z, r24
     692:	69 c0       	rjmp	.+210    	; 0x766 <updateTemperature+0x198>
     694:	56 96       	adiw	r26, 0x16	; 22
     696:	1c 92       	st	X, r1
     698:	8b e1       	ldi	r24, 0x1B	; 27
     69a:	90 e0       	ldi	r25, 0x00	; 0
     69c:	08 9f       	mul	r16, r24
     69e:	f0 01       	movw	r30, r0
     6a0:	09 9f       	mul	r16, r25
     6a2:	f0 0d       	add	r31, r0
     6a4:	18 9f       	mul	r17, r24
     6a6:	f0 0d       	add	r31, r0
     6a8:	11 24       	eor	r1, r1
     6aa:	ec 52       	subi	r30, 0x2C	; 44
     6ac:	fe 4f       	sbci	r31, 0xFE	; 254
     6ae:	40 e0       	ldi	r20, 0x00	; 0
     6b0:	60 e0       	ldi	r22, 0x00	; 0
     6b2:	20 e0       	ldi	r18, 0x00	; 0
     6b4:	30 e0       	ldi	r19, 0x00	; 0
     6b6:	80 81       	ld	r24, Z
     6b8:	91 81       	ldd	r25, Z+1	; 0x01
     6ba:	5c ef       	ldi	r21, 0xFC	; 252
     6bc:	88 31       	cpi	r24, 0x18	; 24
     6be:	95 07       	cpc	r25, r21
     6c0:	19 f0       	breq	.+6      	; 0x6c8 <updateTemperature+0xfa>
     6c2:	28 0f       	add	r18, r24
     6c4:	39 1f       	adc	r19, r25
     6c6:	6f 5f       	subi	r22, 0xFF	; 255
     6c8:	4f 5f       	subi	r20, 0xFF	; 255
     6ca:	32 96       	adiw	r30, 0x02	; 2
     6cc:	4a 30       	cpi	r20, 0x0A	; 10
     6ce:	99 f7       	brne	.-26     	; 0x6b6 <updateTemperature+0xe8>
     6d0:	66 23       	and	r22, r22
     6d2:	81 f4       	brne	.+32     	; 0x6f4 <updateTemperature+0x126>
     6d4:	8b e1       	ldi	r24, 0x1B	; 27
     6d6:	90 e0       	ldi	r25, 0x00	; 0
     6d8:	08 9f       	mul	r16, r24
     6da:	f0 01       	movw	r30, r0
     6dc:	09 9f       	mul	r16, r25
     6de:	f0 0d       	add	r31, r0
     6e0:	18 9f       	mul	r17, r24
     6e2:	f0 0d       	add	r31, r0
     6e4:	11 24       	eor	r1, r1
     6e6:	ee 52       	subi	r30, 0x2E	; 46
     6e8:	fe 4f       	sbci	r31, 0xFE	; 254
     6ea:	88 e1       	ldi	r24, 0x18	; 24
     6ec:	9c ef       	ldi	r25, 0xFC	; 252
     6ee:	91 83       	std	Z+1, r25	; 0x01
     6f0:	80 83       	st	Z, r24
     6f2:	11 c0       	rjmp	.+34     	; 0x716 <updateTemperature+0x148>
     6f4:	8b e1       	ldi	r24, 0x1B	; 27
     6f6:	90 e0       	ldi	r25, 0x00	; 0
     6f8:	08 9f       	mul	r16, r24
     6fa:	f0 01       	movw	r30, r0
     6fc:	09 9f       	mul	r16, r25
     6fe:	f0 0d       	add	r31, r0
     700:	18 9f       	mul	r17, r24
     702:	f0 0d       	add	r31, r0
     704:	11 24       	eor	r1, r1
     706:	ee 52       	subi	r30, 0x2E	; 46
     708:	fe 4f       	sbci	r31, 0xFE	; 254
     70a:	c9 01       	movw	r24, r18
     70c:	70 e0       	ldi	r23, 0x00	; 0
     70e:	0e 94 a3 0f 	call	0x1f46	; 0x1f46 <__divmodhi4>
     712:	71 83       	std	Z+1, r23	; 0x01
     714:	60 83       	st	Z, r22
     716:	8b e1       	ldi	r24, 0x1B	; 27
     718:	90 e0       	ldi	r25, 0x00	; 0
     71a:	08 9f       	mul	r16, r24
     71c:	f0 01       	movw	r30, r0
     71e:	09 9f       	mul	r16, r25
     720:	f0 0d       	add	r31, r0
     722:	18 9f       	mul	r17, r24
     724:	f0 0d       	add	r31, r0
     726:	11 24       	eor	r1, r1
     728:	ee 52       	subi	r30, 0x2E	; 46
     72a:	fe 4f       	sbci	r31, 0xFE	; 254
     72c:	20 81       	ld	r18, Z
     72e:	31 81       	ldd	r19, Z+1	; 0x01
     730:	87 89       	ldd	r24, Z+23	; 0x17
     732:	90 8d       	ldd	r25, Z+24	; 0x18
     734:	82 17       	cp	r24, r18
     736:	93 07       	cpc	r25, r19
     738:	14 f4       	brge	.+4      	; 0x73e <updateTemperature+0x170>
     73a:	30 8f       	std	Z+24, r19	; 0x18
     73c:	27 8b       	std	Z+23, r18	; 0x17
     73e:	8b e1       	ldi	r24, 0x1B	; 27
     740:	90 e0       	ldi	r25, 0x00	; 0
     742:	08 9f       	mul	r16, r24
     744:	f0 01       	movw	r30, r0
     746:	09 9f       	mul	r16, r25
     748:	f0 0d       	add	r31, r0
     74a:	18 9f       	mul	r17, r24
     74c:	f0 0d       	add	r31, r0
     74e:	11 24       	eor	r1, r1
     750:	ee 52       	subi	r30, 0x2E	; 46
     752:	fe 4f       	sbci	r31, 0xFE	; 254
     754:	20 81       	ld	r18, Z
     756:	31 81       	ldd	r19, Z+1	; 0x01
     758:	81 8d       	ldd	r24, Z+25	; 0x19
     75a:	92 8d       	ldd	r25, Z+26	; 0x1a
     75c:	28 17       	cp	r18, r24
     75e:	39 07       	cpc	r19, r25
     760:	14 f4       	brge	.+4      	; 0x766 <updateTemperature+0x198>
     762:	32 8f       	std	Z+26, r19	; 0x1a
     764:	21 8f       	std	Z+25, r18	; 0x19
     766:	0f 90       	pop	r0
     768:	0f 90       	pop	r0
     76a:	0f 90       	pop	r0
     76c:	cf 91       	pop	r28
     76e:	df 91       	pop	r29
     770:	1f 91       	pop	r17
     772:	0f 91       	pop	r16
     774:	08 95       	ret

00000776 <testRead>:
     776:	cf 92       	push	r12
     778:	df 92       	push	r13
     77a:	ef 92       	push	r14
     77c:	ff 92       	push	r15
     77e:	0f 93       	push	r16
     780:	1f 93       	push	r17
     782:	cf 93       	push	r28
     784:	df 93       	push	r29
     786:	00 d0       	rcall	.+0      	; 0x788 <testRead+0x12>
     788:	86 e0       	ldi	r24, 0x06	; 6
     78a:	91 e0       	ldi	r25, 0x01	; 1
     78c:	ad b7       	in	r26, 0x3d	; 61
     78e:	be b7       	in	r27, 0x3e	; 62
     790:	12 96       	adiw	r26, 0x02	; 2
     792:	9c 93       	st	X, r25
     794:	8e 93       	st	-X, r24
     796:	11 97       	sbiw	r26, 0x01	; 1
     798:	0e 94 fd 0f 	call	0x1ffa	; 0x1ffa <printf_P>
     79c:	a8 ee       	ldi	r26, 0xE8	; 232
     79e:	b1 e0       	ldi	r27, 0x01	; 1
     7a0:	20 e0       	ldi	r18, 0x00	; 0
     7a2:	30 e0       	ldi	r19, 0x00	; 0
     7a4:	0f 90       	pop	r0
     7a6:	0f 90       	pop	r0
     7a8:	48 e1       	ldi	r20, 0x18	; 24
     7aa:	5c ef       	ldi	r21, 0xFC	; 252
     7ac:	c8 ee       	ldi	r28, 0xE8	; 232
     7ae:	d3 e0       	ldi	r29, 0x03	; 3
     7b0:	6b e1       	ldi	r22, 0x1B	; 27
     7b2:	70 e0       	ldi	r23, 0x00	; 0
     7b4:	12 96       	adiw	r26, 0x02	; 2
     7b6:	5c 93       	st	X, r21
     7b8:	4e 93       	st	-X, r20
     7ba:	11 97       	sbiw	r26, 0x01	; 1
     7bc:	14 96       	adiw	r26, 0x04	; 4
     7be:	dc 93       	st	X, r29
     7c0:	ce 93       	st	-X, r28
     7c2:	13 97       	sbiw	r26, 0x03	; 3
     7c4:	26 9f       	mul	r18, r22
     7c6:	f0 01       	movw	r30, r0
     7c8:	27 9f       	mul	r18, r23
     7ca:	f0 0d       	add	r31, r0
     7cc:	36 9f       	mul	r19, r22
     7ce:	f0 0d       	add	r31, r0
     7d0:	11 24       	eor	r1, r1
     7d2:	ec 52       	subi	r30, 0x2C	; 44
     7d4:	fe 4f       	sbci	r31, 0xFE	; 254
     7d6:	80 e0       	ldi	r24, 0x00	; 0
     7d8:	90 e0       	ldi	r25, 0x00	; 0
     7da:	41 93       	st	Z+, r20
     7dc:	51 93       	st	Z+, r21
     7de:	01 96       	adiw	r24, 0x01	; 1
     7e0:	8a 30       	cpi	r24, 0x0A	; 10
     7e2:	91 05       	cpc	r25, r1
     7e4:	d1 f7       	brne	.-12     	; 0x7da <testRead+0x64>
     7e6:	1c 92       	st	X, r1
     7e8:	2f 5f       	subi	r18, 0xFF	; 255
     7ea:	3f 4f       	sbci	r19, 0xFF	; 255
     7ec:	5b 96       	adiw	r26, 0x1b	; 27
     7ee:	24 30       	cpi	r18, 0x04	; 4
     7f0:	31 05       	cpc	r19, r1
     7f2:	01 f7       	brne	.-64     	; 0x7b4 <testRead+0x3e>
     7f4:	e0 e9       	ldi	r30, 0x90	; 144
     7f6:	ce 2e       	mov	r12, r30
     7f8:	e1 e0       	ldi	r30, 0x01	; 1
     7fa:	de 2e       	mov	r13, r30
     7fc:	01 e6       	ldi	r16, 0x61	; 97
     7fe:	11 e0       	ldi	r17, 0x01	; 1
     800:	7a eb       	ldi	r23, 0xBA	; 186
     802:	e7 2e       	mov	r14, r23
     804:	70 e0       	ldi	r23, 0x00	; 0
     806:	f7 2e       	mov	r15, r23
     808:	86 e2       	ldi	r24, 0x26	; 38
     80a:	90 e0       	ldi	r25, 0x00	; 0
     80c:	68 e2       	ldi	r22, 0x28	; 40
     80e:	70 e0       	ldi	r23, 0x00	; 0
     810:	47 e2       	ldi	r20, 0x27	; 39
     812:	50 e0       	ldi	r21, 0x00	; 0
     814:	23 e0       	ldi	r18, 0x03	; 3
     816:	0e 94 b5 0e 	call	0x1d6a	; 0x1d6a <ow_set_bus>
     81a:	81 e0       	ldi	r24, 0x01	; 1
     81c:	60 e0       	ldi	r22, 0x00	; 0
     81e:	70 e0       	ldi	r23, 0x00	; 0
     820:	0e 94 d5 0c 	call	0x19aa	; 0x19aa <DS18X20_start_meas>
     824:	86 e2       	ldi	r24, 0x26	; 38
     826:	90 e0       	ldi	r25, 0x00	; 0
     828:	68 e2       	ldi	r22, 0x28	; 40
     82a:	70 e0       	ldi	r23, 0x00	; 0
     82c:	47 e2       	ldi	r20, 0x27	; 39
     82e:	50 e0       	ldi	r21, 0x00	; 0
     830:	22 e0       	ldi	r18, 0x02	; 2
     832:	0e 94 b5 0e 	call	0x1d6a	; 0x1d6a <ow_set_bus>
     836:	81 e0       	ldi	r24, 0x01	; 1
     838:	60 e0       	ldi	r22, 0x00	; 0
     83a:	70 e0       	ldi	r23, 0x00	; 0
     83c:	0e 94 d5 0c 	call	0x19aa	; 0x19aa <DS18X20_start_meas>
     840:	86 e2       	ldi	r24, 0x26	; 38
     842:	90 e0       	ldi	r25, 0x00	; 0
     844:	68 e2       	ldi	r22, 0x28	; 40
     846:	70 e0       	ldi	r23, 0x00	; 0
     848:	47 e2       	ldi	r20, 0x27	; 39
     84a:	50 e0       	ldi	r21, 0x00	; 0
     84c:	21 e0       	ldi	r18, 0x01	; 1
     84e:	0e 94 b5 0e 	call	0x1d6a	; 0x1d6a <ow_set_bus>
     852:	81 e0       	ldi	r24, 0x01	; 1
     854:	60 e0       	ldi	r22, 0x00	; 0
     856:	70 e0       	ldi	r23, 0x00	; 0
     858:	0e 94 d5 0c 	call	0x19aa	; 0x19aa <DS18X20_start_meas>
     85c:	86 e2       	ldi	r24, 0x26	; 38
     85e:	90 e0       	ldi	r25, 0x00	; 0
     860:	68 e2       	ldi	r22, 0x28	; 40
     862:	70 e0       	ldi	r23, 0x00	; 0
     864:	47 e2       	ldi	r20, 0x27	; 39
     866:	50 e0       	ldi	r21, 0x00	; 0
     868:	20 e0       	ldi	r18, 0x00	; 0
     86a:	0e 94 b5 0e 	call	0x1d6a	; 0x1d6a <ow_set_bus>
     86e:	81 e0       	ldi	r24, 0x01	; 1
     870:	60 e0       	ldi	r22, 0x00	; 0
     872:	70 e0       	ldi	r23, 0x00	; 0
     874:	0e 94 d5 0c 	call	0x19aa	; 0x19aa <DS18X20_start_meas>
     878:	80 e2       	ldi	r24, 0x20	; 32
     87a:	9e e4       	ldi	r25, 0x4E	; 78
     87c:	f6 01       	movw	r30, r12
     87e:	31 97       	sbiw	r30, 0x01	; 1
     880:	f1 f7       	brne	.-4      	; 0x87e <testRead+0x108>
     882:	01 97       	sbiw	r24, 0x01	; 1
     884:	d9 f7       	brne	.-10     	; 0x87c <testRead+0x106>
     886:	c0 e0       	ldi	r28, 0x00	; 0
     888:	d0 e0       	ldi	r29, 0x00	; 0
     88a:	20 97       	sbiw	r28, 0x00	; 0
     88c:	41 f4       	brne	.+16     	; 0x89e <testRead+0x128>
     88e:	86 e2       	ldi	r24, 0x26	; 38
     890:	90 e0       	ldi	r25, 0x00	; 0
     892:	68 e2       	ldi	r22, 0x28	; 40
     894:	70 e0       	ldi	r23, 0x00	; 0
     896:	47 e2       	ldi	r20, 0x27	; 39
     898:	50 e0       	ldi	r21, 0x00	; 0
     89a:	23 e0       	ldi	r18, 0x03	; 3
     89c:	1d c0       	rjmp	.+58     	; 0x8d8 <testRead+0x162>
     89e:	c1 30       	cpi	r28, 0x01	; 1
     8a0:	d1 05       	cpc	r29, r1
     8a2:	41 f4       	brne	.+16     	; 0x8b4 <testRead+0x13e>
     8a4:	86 e2       	ldi	r24, 0x26	; 38
     8a6:	90 e0       	ldi	r25, 0x00	; 0
     8a8:	68 e2       	ldi	r22, 0x28	; 40
     8aa:	70 e0       	ldi	r23, 0x00	; 0
     8ac:	47 e2       	ldi	r20, 0x27	; 39
     8ae:	50 e0       	ldi	r21, 0x00	; 0
     8b0:	22 e0       	ldi	r18, 0x02	; 2
     8b2:	12 c0       	rjmp	.+36     	; 0x8d8 <testRead+0x162>
     8b4:	c2 30       	cpi	r28, 0x02	; 2
     8b6:	d1 05       	cpc	r29, r1
     8b8:	41 f4       	brne	.+16     	; 0x8ca <testRead+0x154>
     8ba:	86 e2       	ldi	r24, 0x26	; 38
     8bc:	90 e0       	ldi	r25, 0x00	; 0
     8be:	68 e2       	ldi	r22, 0x28	; 40
     8c0:	70 e0       	ldi	r23, 0x00	; 0
     8c2:	47 e2       	ldi	r20, 0x27	; 39
     8c4:	50 e0       	ldi	r21, 0x00	; 0
     8c6:	21 e0       	ldi	r18, 0x01	; 1
     8c8:	07 c0       	rjmp	.+14     	; 0x8d8 <testRead+0x162>
     8ca:	86 e2       	ldi	r24, 0x26	; 38
     8cc:	90 e0       	ldi	r25, 0x00	; 0
     8ce:	68 e2       	ldi	r22, 0x28	; 40
     8d0:	70 e0       	ldi	r23, 0x00	; 0
     8d2:	47 e2       	ldi	r20, 0x27	; 39
     8d4:	50 e0       	ldi	r21, 0x00	; 0
     8d6:	20 e0       	ldi	r18, 0x00	; 0
     8d8:	0e 94 b5 0e 	call	0x1d6a	; 0x1d6a <ow_set_bus>
     8dc:	8c 2f       	mov	r24, r28
     8de:	0e 94 e7 02 	call	0x5ce	; 0x5ce <updateTemperature>
     8e2:	21 96       	adiw	r28, 0x01	; 1
     8e4:	c4 30       	cpi	r28, 0x04	; 4
     8e6:	d1 05       	cpc	r29, r1
     8e8:	81 f6       	brne	.-96     	; 0x88a <testRead+0x114>
     8ea:	0e 94 8c 02 	call	0x518	; 0x518 <updateLCD>
     8ee:	ed b7       	in	r30, 0x3d	; 61
     8f0:	fe b7       	in	r31, 0x3e	; 62
     8f2:	7c 97       	sbiw	r30, 0x1c	; 28
     8f4:	0f b6       	in	r0, 0x3f	; 63
     8f6:	f8 94       	cli
     8f8:	fe bf       	out	0x3e, r31	; 62
     8fa:	0f be       	out	0x3f, r0	; 63
     8fc:	ed bf       	out	0x3d, r30	; 61
     8fe:	31 96       	adiw	r30, 0x01	; 1
     900:	ad b7       	in	r26, 0x3d	; 61
     902:	be b7       	in	r27, 0x3e	; 62
     904:	12 96       	adiw	r26, 0x02	; 2
     906:	1c 93       	st	X, r17
     908:	0e 93       	st	-X, r16
     90a:	11 97       	sbiw	r26, 0x01	; 1
     90c:	f3 82       	std	Z+3, r15	; 0x03
     90e:	e2 82       	std	Z+2, r14	; 0x02
     910:	80 91 d2 01 	lds	r24, 0x01D2
     914:	90 91 d3 01 	lds	r25, 0x01D3
     918:	95 83       	std	Z+5, r25	; 0x05
     91a:	84 83       	std	Z+4, r24	; 0x04
     91c:	80 91 ed 01 	lds	r24, 0x01ED
     920:	90 91 ee 01 	lds	r25, 0x01EE
     924:	97 83       	std	Z+7, r25	; 0x07
     926:	86 83       	std	Z+6, r24	; 0x06
     928:	80 91 08 02 	lds	r24, 0x0208
     92c:	90 91 09 02 	lds	r25, 0x0209
     930:	91 87       	std	Z+9, r25	; 0x09
     932:	80 87       	std	Z+8, r24	; 0x08
     934:	80 91 23 02 	lds	r24, 0x0223
     938:	90 91 24 02 	lds	r25, 0x0224
     93c:	93 87       	std	Z+11, r25	; 0x0b
     93e:	82 87       	std	Z+10, r24	; 0x0a
     940:	80 91 eb 01 	lds	r24, 0x01EB
     944:	90 91 ec 01 	lds	r25, 0x01EC
     948:	95 87       	std	Z+13, r25	; 0x0d
     94a:	84 87       	std	Z+12, r24	; 0x0c
     94c:	80 91 06 02 	lds	r24, 0x0206
     950:	90 91 07 02 	lds	r25, 0x0207
     954:	97 87       	std	Z+15, r25	; 0x0f
     956:	86 87       	std	Z+14, r24	; 0x0e
     958:	80 91 21 02 	lds	r24, 0x0221
     95c:	90 91 22 02 	lds	r25, 0x0222
     960:	91 8b       	std	Z+17, r25	; 0x11
     962:	80 8b       	std	Z+16, r24	; 0x10
     964:	80 91 3c 02 	lds	r24, 0x023C
     968:	90 91 3d 02 	lds	r25, 0x023D
     96c:	93 8b       	std	Z+19, r25	; 0x13
     96e:	82 8b       	std	Z+18, r24	; 0x12
     970:	80 91 e9 01 	lds	r24, 0x01E9
     974:	90 91 ea 01 	lds	r25, 0x01EA
     978:	95 8b       	std	Z+21, r25	; 0x15
     97a:	84 8b       	std	Z+20, r24	; 0x14
     97c:	80 91 04 02 	lds	r24, 0x0204
     980:	90 91 05 02 	lds	r25, 0x0205
     984:	97 8b       	std	Z+23, r25	; 0x17
     986:	86 8b       	std	Z+22, r24	; 0x16
     988:	80 91 1f 02 	lds	r24, 0x021F
     98c:	90 91 20 02 	lds	r25, 0x0220
     990:	91 8f       	std	Z+25, r25	; 0x19
     992:	80 8f       	std	Z+24, r24	; 0x18
     994:	80 91 3a 02 	lds	r24, 0x023A
     998:	90 91 3b 02 	lds	r25, 0x023B
     99c:	93 8f       	std	Z+27, r25	; 0x1b
     99e:	82 8f       	std	Z+26, r24	; 0x1a
     9a0:	0e 94 bc 0b 	call	0x1778	; 0x1778 <dsprintf_P>
     9a4:	ed b7       	in	r30, 0x3d	; 61
     9a6:	fe b7       	in	r31, 0x3e	; 62
     9a8:	7a 96       	adiw	r30, 0x1a	; 26
     9aa:	0f b6       	in	r0, 0x3f	; 63
     9ac:	f8 94       	cli
     9ae:	fe bf       	out	0x3e, r31	; 62
     9b0:	0f be       	out	0x3f, r0	; 63
     9b2:	ed bf       	out	0x3d, r30	; 61
     9b4:	12 83       	std	Z+2, r17	; 0x02
     9b6:	01 83       	std	Z+1, r16	; 0x01
     9b8:	0e 94 e8 0f 	call	0x1fd0	; 0x1fd0 <printf>
     9bc:	0f 90       	pop	r0
     9be:	0f 90       	pop	r0
     9c0:	23 cf       	rjmp	.-442    	; 0x808 <testRead+0x92>

000009c2 <init_hw>:
     9c2:	83 e3       	ldi	r24, 0x33	; 51
     9c4:	90 e0       	ldi	r25, 0x00	; 0
     9c6:	0e 94 20 01 	call	0x240	; 0x240 <uart_init>
     9ca:	86 e0       	ldi	r24, 0x06	; 6
     9cc:	91 e0       	ldi	r25, 0x01	; 1
     9ce:	90 93 62 02 	sts	0x0262, r25
     9d2:	80 93 61 02 	sts	0x0261, r24
     9d6:	8c e0       	ldi	r24, 0x0C	; 12
     9d8:	0e 94 e3 05 	call	0xbc6	; 0xbc6 <lcd_init>
     9dc:	78 94       	sei
     9de:	08 95       	ret

000009e0 <main>:
     9e0:	0e 94 e1 04 	call	0x9c2	; 0x9c2 <init_hw>
     9e4:	10 92 d1 01 	sts	0x01D1, r1
     9e8:	0e 94 8c 02 	call	0x518	; 0x518 <updateLCD>
     9ec:	80 e1       	ldi	r24, 0x10	; 16
     9ee:	97 e2       	ldi	r25, 0x27	; 39
     9f0:	20 e9       	ldi	r18, 0x90	; 144
     9f2:	31 e0       	ldi	r19, 0x01	; 1
     9f4:	f9 01       	movw	r30, r18
     9f6:	31 97       	sbiw	r30, 0x01	; 1
     9f8:	f1 f7       	brne	.-4      	; 0x9f6 <main+0x16>
     9fa:	01 97       	sbiw	r24, 0x01	; 1
     9fc:	d9 f7       	brne	.-10     	; 0x9f4 <main+0x14>
     9fe:	00 d0       	rcall	.+0      	; 0xa00 <main+0x20>
     a00:	88 e7       	ldi	r24, 0x78	; 120
     a02:	90 e0       	ldi	r25, 0x00	; 0
     a04:	ed b7       	in	r30, 0x3d	; 61
     a06:	fe b7       	in	r31, 0x3e	; 62
     a08:	92 83       	std	Z+2, r25	; 0x02
     a0a:	81 83       	std	Z+1, r24	; 0x01
     a0c:	0e 94 fd 0f 	call	0x1ffa	; 0x1ffa <printf_P>
     a10:	81 e0       	ldi	r24, 0x01	; 1
     a12:	80 93 d1 01 	sts	0x01D1, r24
     a16:	0f 90       	pop	r0
     a18:	0f 90       	pop	r0
     a1a:	0e 94 bb 03 	call	0x776	; 0x776 <testRead>
     a1e:	ff cf       	rjmp	.-2      	; 0xa1e <main+0x3e>

00000a20 <element_cpy>:
     a20:	08 95       	ret

00000a22 <queue_init>:
     a22:	fc 01       	movw	r30, r24
     a24:	14 8a       	std	Z+20, r1	; 0x14
     a26:	8f ef       	ldi	r24, 0xFF	; 255
     a28:	85 8b       	std	Z+21, r24	; 0x15
     a2a:	08 95       	ret

00000a2c <queue_send>:
     a2c:	fc 01       	movw	r30, r24
     a2e:	85 89       	ldd	r24, Z+21	; 0x15
     a30:	8f 3f       	cpi	r24, 0xFF	; 255
     a32:	09 f4       	brne	.+2      	; 0xa36 <queue_send+0xa>
     a34:	15 8a       	std	Z+21, r1	; 0x15
     a36:	94 89       	ldd	r25, Z+20	; 0x14
     a38:	85 89       	ldd	r24, Z+21	; 0x15
     a3a:	89 17       	cp	r24, r25
     a3c:	31 f0       	breq	.+12     	; 0xa4a <queue_send+0x1e>
     a3e:	89 2f       	mov	r24, r25
     a40:	8f 5f       	subi	r24, 0xFF	; 255
     a42:	84 8b       	std	Z+20, r24	; 0x14
     a44:	8b 30       	cpi	r24, 0x0B	; 11
     a46:	08 f0       	brcs	.+2      	; 0xa4a <queue_send+0x1e>
     a48:	14 8a       	std	Z+20, r1	; 0x14
     a4a:	08 95       	ret

00000a4c <lcd_write>:
     a4c:	66 23       	and	r22, r22
     a4e:	11 f0       	breq	.+4      	; 0xa54 <lcd_write+0x8>
     a50:	5a 9a       	sbi	0x0b, 2	; 11
     a52:	01 c0       	rjmp	.+2      	; 0xa56 <lcd_write+0xa>
     a54:	5a 98       	cbi	0x0b, 2	; 11
     a56:	5b 98       	cbi	0x0b, 3	; 11
     a58:	57 9a       	sbi	0x0a, 7	; 10
     a5a:	21 9a       	sbi	0x04, 1	; 4
     a5c:	22 9a       	sbi	0x04, 2	; 4
     a5e:	56 9a       	sbi	0x0a, 6	; 10
     a60:	5e 98       	cbi	0x0b, 6	; 11
     a62:	2a 98       	cbi	0x05, 2	; 5
     a64:	29 98       	cbi	0x05, 1	; 5
     a66:	5f 98       	cbi	0x0b, 7	; 11
     a68:	87 fd       	sbrc	r24, 7
     a6a:	5e 9a       	sbi	0x0b, 6	; 11
     a6c:	86 fd       	sbrc	r24, 6
     a6e:	2a 9a       	sbi	0x05, 2	; 5
     a70:	85 fd       	sbrc	r24, 5
     a72:	29 9a       	sbi	0x05, 1	; 5
     a74:	84 fd       	sbrc	r24, 4
     a76:	5f 9a       	sbi	0x0b, 7	; 11
     a78:	5c 9a       	sbi	0x0b, 4	; 11
     a7a:	00 c0       	rjmp	.+0      	; 0xa7c <lcd_write+0x30>
     a7c:	5c 98       	cbi	0x0b, 4	; 11
     a7e:	5e 98       	cbi	0x0b, 6	; 11
     a80:	2a 98       	cbi	0x05, 2	; 5
     a82:	29 98       	cbi	0x05, 1	; 5
     a84:	5f 98       	cbi	0x0b, 7	; 11
     a86:	83 fd       	sbrc	r24, 3
     a88:	5e 9a       	sbi	0x0b, 6	; 11
     a8a:	82 fd       	sbrc	r24, 2
     a8c:	2a 9a       	sbi	0x05, 2	; 5
     a8e:	81 fd       	sbrc	r24, 1
     a90:	29 9a       	sbi	0x05, 1	; 5
     a92:	80 fd       	sbrc	r24, 0
     a94:	5f 9a       	sbi	0x0b, 7	; 11
     a96:	5c 9a       	sbi	0x0b, 4	; 11
     a98:	00 c0       	rjmp	.+0      	; 0xa9a <lcd_write+0x4e>
     a9a:	5c 98       	cbi	0x0b, 4	; 11
     a9c:	5f 9a       	sbi	0x0b, 7	; 11
     a9e:	29 9a       	sbi	0x05, 1	; 5
     aa0:	2a 9a       	sbi	0x05, 2	; 5
     aa2:	5e 9a       	sbi	0x0b, 6	; 11
     aa4:	08 95       	ret

00000aa6 <lcd_waitbusy>:
     aa6:	80 e4       	ldi	r24, 0x40	; 64
     aa8:	9f e1       	ldi	r25, 0x1F	; 31
     aaa:	01 97       	sbiw	r24, 0x01	; 1
     aac:	f1 f7       	brne	.-4      	; 0xaaa <lcd_waitbusy+0x4>
     aae:	5a 98       	cbi	0x0b, 2	; 11
     ab0:	5b 9a       	sbi	0x0b, 3	; 11
     ab2:	57 98       	cbi	0x0a, 7	; 10
     ab4:	21 98       	cbi	0x04, 1	; 4
     ab6:	22 98       	cbi	0x04, 2	; 4
     ab8:	56 98       	cbi	0x0a, 6	; 10
     aba:	5c 9a       	sbi	0x0b, 4	; 11
     abc:	00 c0       	rjmp	.+0      	; 0xabe <lcd_waitbusy+0x18>
     abe:	89 b1       	in	r24, 0x09	; 9
     ac0:	88 1f       	adc	r24, r24
     ac2:	88 27       	eor	r24, r24
     ac4:	88 1f       	adc	r24, r24
     ac6:	82 95       	swap	r24
     ac8:	80 7f       	andi	r24, 0xF0	; 240
     aca:	19 99       	sbic	0x03, 1	; 3
     acc:	80 62       	ori	r24, 0x20	; 32
     ace:	1a 99       	sbic	0x03, 2	; 3
     ad0:	80 64       	ori	r24, 0x40	; 64
     ad2:	4e 99       	sbic	0x09, 6	; 9
     ad4:	80 68       	ori	r24, 0x80	; 128
     ad6:	5c 98       	cbi	0x0b, 4	; 11
     ad8:	00 c0       	rjmp	.+0      	; 0xada <lcd_waitbusy+0x34>
     ada:	5c 9a       	sbi	0x0b, 4	; 11
     adc:	00 c0       	rjmp	.+0      	; 0xade <lcd_waitbusy+0x38>
     ade:	4f 99       	sbic	0x09, 7	; 9
     ae0:	81 60       	ori	r24, 0x01	; 1
     ae2:	19 99       	sbic	0x03, 1	; 3
     ae4:	82 60       	ori	r24, 0x02	; 2
     ae6:	1a 99       	sbic	0x03, 2	; 3
     ae8:	84 60       	ori	r24, 0x04	; 4
     aea:	4e 99       	sbic	0x09, 6	; 9
     aec:	88 60       	ori	r24, 0x08	; 8
     aee:	5c 98       	cbi	0x0b, 4	; 11
     af0:	08 95       	ret

00000af2 <lcd_command>:
     af2:	1f 93       	push	r17
     af4:	18 2f       	mov	r17, r24
     af6:	0e 94 53 05 	call	0xaa6	; 0xaa6 <lcd_waitbusy>
     afa:	81 2f       	mov	r24, r17
     afc:	60 e0       	ldi	r22, 0x00	; 0
     afe:	0e 94 26 05 	call	0xa4c	; 0xa4c <lcd_write>
     b02:	1f 91       	pop	r17
     b04:	08 95       	ret

00000b06 <lcd_data>:
     b06:	1f 93       	push	r17
     b08:	18 2f       	mov	r17, r24
     b0a:	0e 94 53 05 	call	0xaa6	; 0xaa6 <lcd_waitbusy>
     b0e:	81 2f       	mov	r24, r17
     b10:	61 e0       	ldi	r22, 0x01	; 1
     b12:	0e 94 26 05 	call	0xa4c	; 0xa4c <lcd_write>
     b16:	1f 91       	pop	r17
     b18:	08 95       	ret

00000b1a <lcd_gotoxy>:
     b1a:	66 23       	and	r22, r22
     b1c:	11 f4       	brne	.+4      	; 0xb22 <lcd_gotoxy+0x8>
     b1e:	80 58       	subi	r24, 0x80	; 128
     b20:	09 c0       	rjmp	.+18     	; 0xb34 <lcd_gotoxy+0x1a>
     b22:	61 30       	cpi	r22, 0x01	; 1
     b24:	11 f4       	brne	.+4      	; 0xb2a <lcd_gotoxy+0x10>
     b26:	80 54       	subi	r24, 0x40	; 64
     b28:	05 c0       	rjmp	.+10     	; 0xb34 <lcd_gotoxy+0x1a>
     b2a:	62 30       	cpi	r22, 0x02	; 2
     b2c:	11 f4       	brne	.+4      	; 0xb32 <lcd_gotoxy+0x18>
     b2e:	8c 56       	subi	r24, 0x6C	; 108
     b30:	01 c0       	rjmp	.+2      	; 0xb34 <lcd_gotoxy+0x1a>
     b32:	8c 52       	subi	r24, 0x2C	; 44
     b34:	0e 94 79 05 	call	0xaf2	; 0xaf2 <lcd_command>
     b38:	08 95       	ret

00000b3a <lcd_getxy>:
     b3a:	0e 94 53 05 	call	0xaa6	; 0xaa6 <lcd_waitbusy>
     b3e:	90 e0       	ldi	r25, 0x00	; 0
     b40:	08 95       	ret

00000b42 <lcd_clrscr>:
     b42:	81 e0       	ldi	r24, 0x01	; 1
     b44:	0e 94 79 05 	call	0xaf2	; 0xaf2 <lcd_command>
     b48:	08 95       	ret

00000b4a <lcd_home>:
     b4a:	82 e0       	ldi	r24, 0x02	; 2
     b4c:	0e 94 79 05 	call	0xaf2	; 0xaf2 <lcd_command>
     b50:	08 95       	ret

00000b52 <lcd_putc>:
     b52:	1f 93       	push	r17
     b54:	18 2f       	mov	r17, r24
     b56:	0e 94 53 05 	call	0xaa6	; 0xaa6 <lcd_waitbusy>
     b5a:	98 2f       	mov	r25, r24
     b5c:	1a 30       	cpi	r17, 0x0A	; 10
     b5e:	99 f4       	brne	.+38     	; 0xb86 <lcd_putc+0x34>
     b60:	84 31       	cpi	r24, 0x14	; 20
     b62:	10 f4       	brcc	.+4      	; 0xb68 <lcd_putc+0x16>
     b64:	80 e4       	ldi	r24, 0x40	; 64
     b66:	0b c0       	rjmp	.+22     	; 0xb7e <lcd_putc+0x2c>
     b68:	80 54       	subi	r24, 0x40	; 64
     b6a:	84 31       	cpi	r24, 0x14	; 20
     b6c:	10 f4       	brcc	.+4      	; 0xb72 <lcd_putc+0x20>
     b6e:	84 e1       	ldi	r24, 0x14	; 20
     b70:	06 c0       	rjmp	.+12     	; 0xb7e <lcd_putc+0x2c>
     b72:	94 51       	subi	r25, 0x14	; 20
     b74:	9c 32       	cpi	r25, 0x2C	; 44
     b76:	10 f0       	brcs	.+4      	; 0xb7c <lcd_putc+0x2a>
     b78:	80 e0       	ldi	r24, 0x00	; 0
     b7a:	01 c0       	rjmp	.+2      	; 0xb7e <lcd_putc+0x2c>
     b7c:	84 e5       	ldi	r24, 0x54	; 84
     b7e:	80 58       	subi	r24, 0x80	; 128
     b80:	0e 94 79 05 	call	0xaf2	; 0xaf2 <lcd_command>
     b84:	04 c0       	rjmp	.+8      	; 0xb8e <lcd_putc+0x3c>
     b86:	81 2f       	mov	r24, r17
     b88:	61 e0       	ldi	r22, 0x01	; 1
     b8a:	0e 94 26 05 	call	0xa4c	; 0xa4c <lcd_write>
     b8e:	1f 91       	pop	r17
     b90:	08 95       	ret

00000b92 <lcd_puts>:
     b92:	cf 93       	push	r28
     b94:	df 93       	push	r29
     b96:	ec 01       	movw	r28, r24
     b98:	02 c0       	rjmp	.+4      	; 0xb9e <lcd_puts+0xc>
     b9a:	0e 94 a9 05 	call	0xb52	; 0xb52 <lcd_putc>
     b9e:	89 91       	ld	r24, Y+
     ba0:	88 23       	and	r24, r24
     ba2:	d9 f7       	brne	.-10     	; 0xb9a <lcd_puts+0x8>
     ba4:	df 91       	pop	r29
     ba6:	cf 91       	pop	r28
     ba8:	08 95       	ret

00000baa <lcd_puts_p>:
     baa:	cf 93       	push	r28
     bac:	df 93       	push	r29
     bae:	ec 01       	movw	r28, r24
     bb0:	02 c0       	rjmp	.+4      	; 0xbb6 <lcd_puts_p+0xc>
     bb2:	0e 94 a9 05 	call	0xb52	; 0xb52 <lcd_putc>
     bb6:	fe 01       	movw	r30, r28
     bb8:	21 96       	adiw	r28, 0x01	; 1
     bba:	84 91       	lpm	r24, Z+
     bbc:	88 23       	and	r24, r24
     bbe:	c9 f7       	brne	.-14     	; 0xbb2 <lcd_puts_p+0x8>
     bc0:	df 91       	pop	r29
     bc2:	cf 91       	pop	r28
     bc4:	08 95       	ret

00000bc6 <lcd_init>:
     bc6:	1f 93       	push	r17
     bc8:	18 2f       	mov	r17, r24
     bca:	52 9a       	sbi	0x0a, 2	; 10
     bcc:	53 9a       	sbi	0x0a, 3	; 10
     bce:	54 9a       	sbi	0x0a, 4	; 10
     bd0:	57 9a       	sbi	0x0a, 7	; 10
     bd2:	21 9a       	sbi	0x04, 1	; 4
     bd4:	22 9a       	sbi	0x04, 2	; 4
     bd6:	56 9a       	sbi	0x0a, 6	; 10
     bd8:	80 ec       	ldi	r24, 0xC0	; 192
     bda:	9c ea       	ldi	r25, 0xAC	; 172
     bdc:	01 97       	sbiw	r24, 0x01	; 1
     bde:	f1 f7       	brne	.-4      	; 0xbdc <lcd_init+0x16>
     be0:	29 9a       	sbi	0x05, 1	; 5
     be2:	5f 9a       	sbi	0x0b, 7	; 11
     be4:	5c 9a       	sbi	0x0b, 4	; 11
     be6:	00 c0       	rjmp	.+0      	; 0xbe8 <lcd_init+0x22>
     be8:	5c 98       	cbi	0x0b, 4	; 11
     bea:	85 ee       	ldi	r24, 0xE5	; 229
     bec:	95 e3       	ldi	r25, 0x35	; 53
     bee:	01 97       	sbiw	r24, 0x01	; 1
     bf0:	f1 f7       	brne	.-4      	; 0xbee <lcd_init+0x28>
     bf2:	5c 9a       	sbi	0x0b, 4	; 11
     bf4:	00 c0       	rjmp	.+0      	; 0xbf6 <lcd_init+0x30>
     bf6:	5c 98       	cbi	0x0b, 4	; 11
     bf8:	80 eb       	ldi	r24, 0xB0	; 176
     bfa:	90 e0       	ldi	r25, 0x00	; 0
     bfc:	fc 01       	movw	r30, r24
     bfe:	31 97       	sbiw	r30, 0x01	; 1
     c00:	f1 f7       	brne	.-4      	; 0xbfe <lcd_init+0x38>
     c02:	5c 9a       	sbi	0x0b, 4	; 11
     c04:	00 c0       	rjmp	.+0      	; 0xc06 <lcd_init+0x40>
     c06:	5c 98       	cbi	0x0b, 4	; 11
     c08:	fc 01       	movw	r30, r24
     c0a:	31 97       	sbiw	r30, 0x01	; 1
     c0c:	f1 f7       	brne	.-4      	; 0xc0a <lcd_init+0x44>
     c0e:	5f 98       	cbi	0x0b, 7	; 11
     c10:	5c 9a       	sbi	0x0b, 4	; 11
     c12:	00 c0       	rjmp	.+0      	; 0xc14 <lcd_init+0x4e>
     c14:	5c 98       	cbi	0x0b, 4	; 11
     c16:	01 97       	sbiw	r24, 0x01	; 1
     c18:	f1 f7       	brne	.-4      	; 0xc16 <lcd_init+0x50>
     c1a:	88 e2       	ldi	r24, 0x28	; 40
     c1c:	0e 94 79 05 	call	0xaf2	; 0xaf2 <lcd_command>
     c20:	88 e0       	ldi	r24, 0x08	; 8
     c22:	0e 94 79 05 	call	0xaf2	; 0xaf2 <lcd_command>
     c26:	0e 94 a1 05 	call	0xb42	; 0xb42 <lcd_clrscr>
     c2a:	86 e0       	ldi	r24, 0x06	; 6
     c2c:	0e 94 79 05 	call	0xaf2	; 0xaf2 <lcd_command>
     c30:	81 2f       	mov	r24, r17
     c32:	0e 94 79 05 	call	0xaf2	; 0xaf2 <lcd_command>
     c36:	1f 91       	pop	r17
     c38:	08 95       	ret

00000c3a <i2c_init>:
     c3a:	10 92 b9 00 	sts	0x00B9, r1
     c3e:	88 e4       	ldi	r24, 0x48	; 72
     c40:	80 93 b8 00 	sts	0x00B8, r24
     c44:	08 95       	ret

00000c46 <i2c_start>:
     c46:	98 2f       	mov	r25, r24
     c48:	84 ea       	ldi	r24, 0xA4	; 164
     c4a:	80 93 bc 00 	sts	0x00BC, r24
     c4e:	80 91 bc 00 	lds	r24, 0x00BC
     c52:	87 ff       	sbrs	r24, 7
     c54:	fc cf       	rjmp	.-8      	; 0xc4e <i2c_start+0x8>
     c56:	80 91 b9 00 	lds	r24, 0x00B9
     c5a:	88 7f       	andi	r24, 0xF8	; 248
     c5c:	88 30       	cpi	r24, 0x08	; 8
     c5e:	21 f0       	breq	.+8      	; 0xc68 <i2c_start+0x22>
     c60:	80 31       	cpi	r24, 0x10	; 16
     c62:	11 f0       	breq	.+4      	; 0xc68 <i2c_start+0x22>
     c64:	81 e0       	ldi	r24, 0x01	; 1
     c66:	08 95       	ret
     c68:	90 93 bb 00 	sts	0x00BB, r25
     c6c:	84 e8       	ldi	r24, 0x84	; 132
     c6e:	80 93 bc 00 	sts	0x00BC, r24
     c72:	80 91 bc 00 	lds	r24, 0x00BC
     c76:	87 ff       	sbrs	r24, 7
     c78:	fc cf       	rjmp	.-8      	; 0xc72 <i2c_start+0x2c>
     c7a:	90 91 b9 00 	lds	r25, 0x00B9
     c7e:	98 7f       	andi	r25, 0xF8	; 248
     c80:	98 31       	cpi	r25, 0x18	; 24
     c82:	11 f4       	brne	.+4      	; 0xc88 <i2c_start+0x42>
     c84:	80 e0       	ldi	r24, 0x00	; 0
     c86:	08 95       	ret
     c88:	80 e0       	ldi	r24, 0x00	; 0
     c8a:	90 34       	cpi	r25, 0x40	; 64
     c8c:	09 f0       	breq	.+2      	; 0xc90 <i2c_start+0x4a>
     c8e:	81 e0       	ldi	r24, 0x01	; 1
     c90:	08 95       	ret

00000c92 <i2c_start_wait>:
     c92:	98 2f       	mov	r25, r24
     c94:	44 ea       	ldi	r20, 0xA4	; 164
     c96:	34 e8       	ldi	r19, 0x84	; 132
     c98:	24 e9       	ldi	r18, 0x94	; 148
     c9a:	40 93 bc 00 	sts	0x00BC, r20
     c9e:	80 91 bc 00 	lds	r24, 0x00BC
     ca2:	87 ff       	sbrs	r24, 7
     ca4:	fc cf       	rjmp	.-8      	; 0xc9e <i2c_start_wait+0xc>
     ca6:	80 91 b9 00 	lds	r24, 0x00B9
     caa:	88 7f       	andi	r24, 0xF8	; 248
     cac:	88 30       	cpi	r24, 0x08	; 8
     cae:	11 f0       	breq	.+4      	; 0xcb4 <i2c_start_wait+0x22>
     cb0:	80 31       	cpi	r24, 0x10	; 16
     cb2:	99 f7       	brne	.-26     	; 0xc9a <i2c_start_wait+0x8>
     cb4:	90 93 bb 00 	sts	0x00BB, r25
     cb8:	30 93 bc 00 	sts	0x00BC, r19
     cbc:	80 91 bc 00 	lds	r24, 0x00BC
     cc0:	87 ff       	sbrs	r24, 7
     cc2:	fc cf       	rjmp	.-8      	; 0xcbc <i2c_start_wait+0x2a>
     cc4:	80 91 b9 00 	lds	r24, 0x00B9
     cc8:	88 7f       	andi	r24, 0xF8	; 248
     cca:	80 32       	cpi	r24, 0x20	; 32
     ccc:	11 f0       	breq	.+4      	; 0xcd2 <i2c_start_wait+0x40>
     cce:	88 35       	cpi	r24, 0x58	; 88
     cd0:	39 f4       	brne	.+14     	; 0xce0 <i2c_start_wait+0x4e>
     cd2:	20 93 bc 00 	sts	0x00BC, r18
     cd6:	80 91 bc 00 	lds	r24, 0x00BC
     cda:	84 fd       	sbrc	r24, 4
     cdc:	fc cf       	rjmp	.-8      	; 0xcd6 <i2c_start_wait+0x44>
     cde:	dd cf       	rjmp	.-70     	; 0xc9a <i2c_start_wait+0x8>
     ce0:	08 95       	ret

00000ce2 <i2c_rep_start>:
     ce2:	0e 94 23 06 	call	0xc46	; 0xc46 <i2c_start>
     ce6:	08 95       	ret

00000ce8 <i2c_stop>:
     ce8:	84 e9       	ldi	r24, 0x94	; 148
     cea:	80 93 bc 00 	sts	0x00BC, r24
     cee:	80 91 bc 00 	lds	r24, 0x00BC
     cf2:	84 fd       	sbrc	r24, 4
     cf4:	fc cf       	rjmp	.-8      	; 0xcee <i2c_stop+0x6>
     cf6:	08 95       	ret

00000cf8 <i2c_write>:
     cf8:	80 93 bb 00 	sts	0x00BB, r24
     cfc:	84 e8       	ldi	r24, 0x84	; 132
     cfe:	80 93 bc 00 	sts	0x00BC, r24
     d02:	80 91 bc 00 	lds	r24, 0x00BC
     d06:	87 ff       	sbrs	r24, 7
     d08:	fc cf       	rjmp	.-8      	; 0xd02 <i2c_write+0xa>
     d0a:	80 91 b9 00 	lds	r24, 0x00B9
     d0e:	90 e0       	ldi	r25, 0x00	; 0
     d10:	88 7f       	andi	r24, 0xF8	; 248
     d12:	88 32       	cpi	r24, 0x28	; 40
     d14:	09 f0       	breq	.+2      	; 0xd18 <i2c_write+0x20>
     d16:	91 e0       	ldi	r25, 0x01	; 1
     d18:	89 2f       	mov	r24, r25
     d1a:	08 95       	ret

00000d1c <i2c_readAck>:
     d1c:	84 ec       	ldi	r24, 0xC4	; 196
     d1e:	80 93 bc 00 	sts	0x00BC, r24
     d22:	80 91 bc 00 	lds	r24, 0x00BC
     d26:	87 ff       	sbrs	r24, 7
     d28:	fc cf       	rjmp	.-8      	; 0xd22 <i2c_readAck+0x6>
     d2a:	80 91 bb 00 	lds	r24, 0x00BB
     d2e:	08 95       	ret

00000d30 <i2c_readNak>:
     d30:	84 e8       	ldi	r24, 0x84	; 132
     d32:	80 93 bc 00 	sts	0x00BC, r24
     d36:	80 91 bc 00 	lds	r24, 0x00BC
     d3a:	87 ff       	sbrs	r24, 7
     d3c:	fc cf       	rjmp	.-8      	; 0xd36 <i2c_readNak+0x6>
     d3e:	80 91 bb 00 	lds	r24, 0x00BB
     d42:	08 95       	ret

00000d44 <Crc16Memory>:
     d44:	dc 01       	movw	r26, r24
     d46:	2f ef       	ldi	r18, 0xFF	; 255
     d48:	3f ef       	ldi	r19, 0xFF	; 255
     d4a:	40 e0       	ldi	r20, 0x00	; 0
     d4c:	50 e0       	ldi	r21, 0x00	; 0
     d4e:	1d c0       	rjmp	.+58     	; 0xd8a <Crc16Memory+0x46>
     d50:	fd 01       	movw	r30, r26
     d52:	e4 0f       	add	r30, r20
     d54:	f5 1f       	adc	r31, r21
     d56:	80 81       	ld	r24, Z
     d58:	28 27       	eor	r18, r24
     d5a:	82 2f       	mov	r24, r18
     d5c:	82 95       	swap	r24
     d5e:	82 27       	eor	r24, r18
     d60:	08 2e       	mov	r0, r24
     d62:	86 95       	lsr	r24
     d64:	86 95       	lsr	r24
     d66:	80 25       	eor	r24, r0
     d68:	08 2e       	mov	r0, r24
     d6a:	86 95       	lsr	r24
     d6c:	80 25       	eor	r24, r0
     d6e:	87 70       	andi	r24, 0x07	; 7
     d70:	02 2e       	mov	r0, r18
     d72:	23 2f       	mov	r18, r19
     d74:	86 95       	lsr	r24
     d76:	07 94       	ror	r0
     d78:	87 95       	ror	r24
     d7a:	30 2d       	mov	r19, r0
     d7c:	28 27       	eor	r18, r24
     d7e:	06 94       	lsr	r0
     d80:	87 95       	ror	r24
     d82:	30 25       	eor	r19, r0
     d84:	28 27       	eor	r18, r24
     d86:	4f 5f       	subi	r20, 0xFF	; 255
     d88:	5f 4f       	sbci	r21, 0xFF	; 255
     d8a:	46 17       	cp	r20, r22
     d8c:	57 07       	cpc	r21, r23
     d8e:	00 f3       	brcs	.-64     	; 0xd50 <Crc16Memory+0xc>
     d90:	20 95       	com	r18
     d92:	30 95       	com	r19
     d94:	c9 01       	movw	r24, r18
     d96:	08 95       	ret

00000d98 <SetEEPROMStructureParameters>:
     d98:	e8 2f       	mov	r30, r24
     d9a:	db 01       	movw	r26, r22
     d9c:	b9 01       	movw	r22, r18
     d9e:	21 15       	cp	r18, r1
     da0:	31 05       	cpc	r19, r1
     da2:	b1 f1       	breq	.+108    	; 0xe10 <SetEEPROMStructureParameters+0x78>
     da4:	40 31       	cpi	r20, 0x10	; 16
     da6:	51 05       	cpc	r21, r1
     da8:	98 f1       	brcs	.+102    	; 0xe10 <SetEEPROMStructureParameters+0x78>
     daa:	28 30       	cpi	r18, 0x08	; 8
     dac:	31 05       	cpc	r19, r1
     dae:	80 f1       	brcs	.+96     	; 0xe10 <SetEEPROMStructureParameters+0x78>
     db0:	ca 01       	movw	r24, r20
     db2:	8a 2b       	or	r24, r26
     db4:	9b 2b       	or	r25, r27
     db6:	83 70       	andi	r24, 0x03	; 3
     db8:	90 70       	andi	r25, 0x00	; 0
     dba:	89 2b       	or	r24, r25
     dbc:	49 f5       	brne	.+82     	; 0xe10 <SetEEPROMStructureParameters+0x78>
     dbe:	e2 30       	cpi	r30, 0x02	; 2
     dc0:	38 f5       	brcc	.+78     	; 0xe10 <SetEEPROMStructureParameters+0x78>
     dc2:	2e 2f       	mov	r18, r30
     dc4:	30 e0       	ldi	r19, 0x00	; 0
     dc6:	8d e0       	ldi	r24, 0x0D	; 13
     dc8:	90 e0       	ldi	r25, 0x00	; 0
     dca:	28 9f       	mul	r18, r24
     dcc:	f0 01       	movw	r30, r0
     dce:	29 9f       	mul	r18, r25
     dd0:	f0 0d       	add	r31, r0
     dd2:	38 9f       	mul	r19, r24
     dd4:	f0 0d       	add	r31, r0
     dd6:	11 24       	eor	r1, r1
     dd8:	e2 5c       	subi	r30, 0xC2	; 194
     dda:	fd 4f       	sbci	r31, 0xFD	; 253
     ddc:	8f ef       	ldi	r24, 0xFF	; 255
     dde:	9f ef       	ldi	r25, 0xFF	; 255
     de0:	93 87       	std	Z+11, r25	; 0x0b
     de2:	82 87       	std	Z+10, r24	; 0x0a
     de4:	91 87       	std	Z+9, r25	; 0x09
     de6:	80 87       	std	Z+8, r24	; 0x08
     de8:	14 86       	std	Z+12, r1	; 0x0c
     dea:	b1 83       	std	Z+1, r27	; 0x01
     dec:	a0 83       	st	Z, r26
     dee:	53 83       	std	Z+3, r21	; 0x03
     df0:	42 83       	std	Z+2, r20	; 0x02
     df2:	75 83       	std	Z+5, r23	; 0x05
     df4:	64 83       	std	Z+4, r22	; 0x04
     df6:	ca 01       	movw	r24, r20
     df8:	96 95       	lsr	r25
     dfa:	87 95       	ror	r24
     dfc:	0e 94 8f 0f 	call	0x1f1e	; 0x1f1e <__udivmodhi4>
     e00:	77 83       	std	Z+7, r23	; 0x07
     e02:	66 83       	std	Z+6, r22	; 0x06
     e04:	20 e0       	ldi	r18, 0x00	; 0
     e06:	61 15       	cp	r22, r1
     e08:	71 05       	cpc	r23, r1
     e0a:	19 f0       	breq	.+6      	; 0xe12 <SetEEPROMStructureParameters+0x7a>
     e0c:	21 e0       	ldi	r18, 0x01	; 1
     e0e:	01 c0       	rjmp	.+2      	; 0xe12 <SetEEPROMStructureParameters+0x7a>
     e10:	20 e0       	ldi	r18, 0x00	; 0
     e12:	82 2f       	mov	r24, r18
     e14:	08 95       	ret

00000e16 <SaveEEPROMStructure>:
     e16:	cf 92       	push	r12
     e18:	df 92       	push	r13
     e1a:	ef 92       	push	r14
     e1c:	ff 92       	push	r15
     e1e:	0f 93       	push	r16
     e20:	1f 93       	push	r17
     e22:	df 93       	push	r29
     e24:	cf 93       	push	r28
     e26:	00 d0       	rcall	.+0      	; 0xe28 <SaveEEPROMStructure+0x12>
     e28:	cd b7       	in	r28, 0x3d	; 61
     e2a:	de b7       	in	r29, 0x3e	; 62
     e2c:	7b 01       	movw	r14, r22
     e2e:	c8 2e       	mov	r12, r24
     e30:	dd 24       	eor	r13, r13
     e32:	8d e0       	ldi	r24, 0x0D	; 13
     e34:	90 e0       	ldi	r25, 0x00	; 0
     e36:	c8 9e       	mul	r12, r24
     e38:	f0 01       	movw	r30, r0
     e3a:	c9 9e       	mul	r12, r25
     e3c:	f0 0d       	add	r31, r0
     e3e:	d8 9e       	mul	r13, r24
     e40:	f0 0d       	add	r31, r0
     e42:	11 24       	eor	r1, r1
     e44:	e2 5c       	subi	r30, 0xC2	; 194
     e46:	fd 4f       	sbci	r31, 0xFD	; 253
     e48:	84 85       	ldd	r24, Z+12	; 0x0c
     e4a:	88 23       	and	r24, r24
     e4c:	09 f4       	brne	.+2      	; 0xe50 <SaveEEPROMStructure+0x3a>
     e4e:	97 c0       	rjmp	.+302    	; 0xf7e <SaveEEPROMStructure+0x168>
     e50:	80 85       	ldd	r24, Z+8	; 0x08
     e52:	91 85       	ldd	r25, Z+9	; 0x09
     e54:	01 96       	adiw	r24, 0x01	; 1
     e56:	91 87       	std	Z+9, r25	; 0x09
     e58:	80 87       	std	Z+8, r24	; 0x08
     e5a:	26 81       	ldd	r18, Z+6	; 0x06
     e5c:	37 81       	ldd	r19, Z+7	; 0x07
     e5e:	82 17       	cp	r24, r18
     e60:	93 07       	cpc	r25, r19
     e62:	10 f0       	brcs	.+4      	; 0xe68 <SaveEEPROMStructure+0x52>
     e64:	11 86       	std	Z+9, r1	; 0x09
     e66:	10 86       	std	Z+8, r1	; 0x08
     e68:	8d e0       	ldi	r24, 0x0D	; 13
     e6a:	90 e0       	ldi	r25, 0x00	; 0
     e6c:	c8 9e       	mul	r12, r24
     e6e:	d0 01       	movw	r26, r0
     e70:	c9 9e       	mul	r12, r25
     e72:	b0 0d       	add	r27, r0
     e74:	d8 9e       	mul	r13, r24
     e76:	b0 0d       	add	r27, r0
     e78:	11 24       	eor	r1, r1
     e7a:	a2 5c       	subi	r26, 0xC2	; 194
     e7c:	bd 4f       	sbci	r27, 0xFD	; 253
     e7e:	1a 96       	adiw	r26, 0x0a	; 10
     e80:	8d 91       	ld	r24, X+
     e82:	9c 91       	ld	r25, X
     e84:	1b 97       	sbiw	r26, 0x0b	; 11
     e86:	01 96       	adiw	r24, 0x01	; 1
     e88:	1b 96       	adiw	r26, 0x0b	; 11
     e8a:	9c 93       	st	X, r25
     e8c:	8e 93       	st	-X, r24
     e8e:	1a 97       	sbiw	r26, 0x0a	; 10
     e90:	14 96       	adiw	r26, 0x04	; 4
     e92:	ed 91       	ld	r30, X+
     e94:	fc 91       	ld	r31, X
     e96:	15 97       	sbiw	r26, 0x05	; 5
     e98:	34 97       	sbiw	r30, 0x04	; 4
     e9a:	ee 0d       	add	r30, r14
     e9c:	ff 1d       	adc	r31, r15
     e9e:	91 83       	std	Z+1, r25	; 0x01
     ea0:	80 83       	st	Z, r24
     ea2:	14 96       	adiw	r26, 0x04	; 4
     ea4:	0d 90       	ld	r0, X+
     ea6:	bc 91       	ld	r27, X
     ea8:	a0 2d       	mov	r26, r0
     eaa:	bd 01       	movw	r22, r26
     eac:	62 50       	subi	r22, 0x02	; 2
     eae:	70 40       	sbci	r23, 0x00	; 0
     eb0:	20 e0       	ldi	r18, 0x00	; 0
     eb2:	30 e0       	ldi	r19, 0x00	; 0
     eb4:	4f ef       	ldi	r20, 0xFF	; 255
     eb6:	5f ef       	ldi	r21, 0xFF	; 255
     eb8:	1d c0       	rjmp	.+58     	; 0xef4 <SaveEEPROMStructure+0xde>
     eba:	f7 01       	movw	r30, r14
     ebc:	e2 0f       	add	r30, r18
     ebe:	f3 1f       	adc	r31, r19
     ec0:	80 81       	ld	r24, Z
     ec2:	48 27       	eor	r20, r24
     ec4:	84 2f       	mov	r24, r20
     ec6:	82 95       	swap	r24
     ec8:	84 27       	eor	r24, r20
     eca:	08 2e       	mov	r0, r24
     ecc:	86 95       	lsr	r24
     ece:	86 95       	lsr	r24
     ed0:	80 25       	eor	r24, r0
     ed2:	08 2e       	mov	r0, r24
     ed4:	86 95       	lsr	r24
     ed6:	80 25       	eor	r24, r0
     ed8:	87 70       	andi	r24, 0x07	; 7
     eda:	04 2e       	mov	r0, r20
     edc:	45 2f       	mov	r20, r21
     ede:	86 95       	lsr	r24
     ee0:	07 94       	ror	r0
     ee2:	87 95       	ror	r24
     ee4:	50 2d       	mov	r21, r0
     ee6:	48 27       	eor	r20, r24
     ee8:	06 94       	lsr	r0
     eea:	87 95       	ror	r24
     eec:	50 25       	eor	r21, r0
     eee:	48 27       	eor	r20, r24
     ef0:	2f 5f       	subi	r18, 0xFF	; 255
     ef2:	3f 4f       	sbci	r19, 0xFF	; 255
     ef4:	26 17       	cp	r18, r22
     ef6:	37 07       	cpc	r19, r23
     ef8:	00 f3       	brcs	.-64     	; 0xeba <SaveEEPROMStructure+0xa4>
     efa:	ca 01       	movw	r24, r20
     efc:	80 95       	com	r24
     efe:	90 95       	com	r25
     f00:	9a 83       	std	Y+2, r25	; 0x02
     f02:	89 83       	std	Y+1, r24	; 0x01
     f04:	12 97       	sbiw	r26, 0x02	; 2
     f06:	ae 0d       	add	r26, r14
     f08:	bf 1d       	adc	r27, r15
     f0a:	8d 93       	st	X+, r24
     f0c:	9c 93       	st	X, r25
     f0e:	8d e0       	ldi	r24, 0x0D	; 13
     f10:	90 e0       	ldi	r25, 0x00	; 0
     f12:	c8 9e       	mul	r12, r24
     f14:	80 01       	movw	r16, r0
     f16:	c9 9e       	mul	r12, r25
     f18:	10 0d       	add	r17, r0
     f1a:	d8 9e       	mul	r13, r24
     f1c:	10 0d       	add	r17, r0
     f1e:	11 24       	eor	r1, r1
     f20:	02 5c       	subi	r16, 0xC2	; 194
     f22:	1d 4f       	sbci	r17, 0xFD	; 253
     f24:	f8 01       	movw	r30, r16
     f26:	44 81       	ldd	r20, Z+4	; 0x04
     f28:	55 81       	ldd	r21, Z+5	; 0x05
     f2a:	80 85       	ldd	r24, Z+8	; 0x08
     f2c:	91 85       	ldd	r25, Z+9	; 0x09
     f2e:	48 9f       	mul	r20, r24
     f30:	b0 01       	movw	r22, r0
     f32:	49 9f       	mul	r20, r25
     f34:	70 0d       	add	r23, r0
     f36:	58 9f       	mul	r21, r24
     f38:	70 0d       	add	r23, r0
     f3a:	11 24       	eor	r1, r1
     f3c:	80 81       	ld	r24, Z
     f3e:	91 81       	ldd	r25, Z+1	; 0x01
     f40:	68 0f       	add	r22, r24
     f42:	79 1f       	adc	r23, r25
     f44:	c7 01       	movw	r24, r14
     f46:	0e 94 10 12 	call	0x2420	; 0x2420 <__eewr_block_m168>
     f4a:	f8 01       	movw	r30, r16
     f4c:	44 81       	ldd	r20, Z+4	; 0x04
     f4e:	55 81       	ldd	r21, Z+5	; 0x05
     f50:	80 85       	ldd	r24, Z+8	; 0x08
     f52:	91 85       	ldd	r25, Z+9	; 0x09
     f54:	48 9f       	mul	r20, r24
     f56:	b0 01       	movw	r22, r0
     f58:	49 9f       	mul	r20, r25
     f5a:	70 0d       	add	r23, r0
     f5c:	58 9f       	mul	r21, r24
     f5e:	70 0d       	add	r23, r0
     f60:	11 24       	eor	r1, r1
     f62:	82 81       	ldd	r24, Z+2	; 0x02
     f64:	93 81       	ldd	r25, Z+3	; 0x03
     f66:	96 95       	lsr	r25
     f68:	87 95       	ror	r24
     f6a:	68 0f       	add	r22, r24
     f6c:	79 1f       	adc	r23, r25
     f6e:	80 81       	ld	r24, Z
     f70:	91 81       	ldd	r25, Z+1	; 0x01
     f72:	68 0f       	add	r22, r24
     f74:	79 1f       	adc	r23, r25
     f76:	c7 01       	movw	r24, r14
     f78:	0e 94 10 12 	call	0x2420	; 0x2420 <__eewr_block_m168>
     f7c:	81 e0       	ldi	r24, 0x01	; 1
     f7e:	0f 90       	pop	r0
     f80:	0f 90       	pop	r0
     f82:	cf 91       	pop	r28
     f84:	df 91       	pop	r29
     f86:	1f 91       	pop	r17
     f88:	0f 91       	pop	r16
     f8a:	ff 90       	pop	r15
     f8c:	ef 90       	pop	r14
     f8e:	df 90       	pop	r13
     f90:	cf 90       	pop	r12
     f92:	08 95       	ret

00000f94 <ClearEEPROM>:
     f94:	af 92       	push	r10
     f96:	bf 92       	push	r11
     f98:	cf 92       	push	r12
     f9a:	df 92       	push	r13
     f9c:	ef 92       	push	r14
     f9e:	ff 92       	push	r15
     fa0:	0f 93       	push	r16
     fa2:	1f 93       	push	r17
     fa4:	df 93       	push	r29
     fa6:	cf 93       	push	r28
     fa8:	00 d0       	rcall	.+0      	; 0xfaa <ClearEEPROM+0x16>
     faa:	00 d0       	rcall	.+0      	; 0xfac <ClearEEPROM+0x18>
     fac:	cd b7       	in	r28, 0x3d	; 61
     fae:	de b7       	in	r29, 0x3e	; 62
     fb0:	2f ef       	ldi	r18, 0xFF	; 255
     fb2:	3f ef       	ldi	r19, 0xFF	; 255
     fb4:	4f ef       	ldi	r20, 0xFF	; 255
     fb6:	5f ef       	ldi	r21, 0xFF	; 255
     fb8:	29 83       	std	Y+1, r18	; 0x01
     fba:	3a 83       	std	Y+2, r19	; 0x02
     fbc:	4b 83       	std	Y+3, r20	; 0x03
     fbe:	5c 83       	std	Y+4, r21	; 0x04
     fc0:	ee 24       	eor	r14, r14
     fc2:	ff 24       	eor	r15, r15
     fc4:	90 e0       	ldi	r25, 0x00	; 0
     fc6:	2d e0       	ldi	r18, 0x0D	; 13
     fc8:	30 e0       	ldi	r19, 0x00	; 0
     fca:	82 9f       	mul	r24, r18
     fcc:	80 01       	movw	r16, r0
     fce:	83 9f       	mul	r24, r19
     fd0:	10 0d       	add	r17, r0
     fd2:	92 9f       	mul	r25, r18
     fd4:	10 0d       	add	r17, r0
     fd6:	11 24       	eor	r1, r1
     fd8:	02 5c       	subi	r16, 0xC2	; 194
     fda:	1d 4f       	sbci	r17, 0xFD	; 253
     fdc:	42 e0       	ldi	r20, 0x02	; 2
     fde:	c4 2e       	mov	r12, r20
     fe0:	d1 2c       	mov	r13, r1
     fe2:	c0 0e       	add	r12, r16
     fe4:	d1 1e       	adc	r13, r17
     fe6:	5e 01       	movw	r10, r28
     fe8:	08 94       	sec
     fea:	a1 1c       	adc	r10, r1
     fec:	b1 1c       	adc	r11, r1
     fee:	0e c0       	rjmp	.+28     	; 0x100c <ClearEEPROM+0x78>
     ff0:	f8 01       	movw	r30, r16
     ff2:	60 81       	ld	r22, Z
     ff4:	71 81       	ldd	r23, Z+1	; 0x01
     ff6:	6e 0d       	add	r22, r14
     ff8:	7f 1d       	adc	r23, r15
     ffa:	c5 01       	movw	r24, r10
     ffc:	44 e0       	ldi	r20, 0x04	; 4
     ffe:	50 e0       	ldi	r21, 0x00	; 0
    1000:	0e 94 10 12 	call	0x2420	; 0x2420 <__eewr_block_m168>
    1004:	84 e0       	ldi	r24, 0x04	; 4
    1006:	90 e0       	ldi	r25, 0x00	; 0
    1008:	e8 0e       	add	r14, r24
    100a:	f9 1e       	adc	r15, r25
    100c:	f6 01       	movw	r30, r12
    100e:	80 81       	ld	r24, Z
    1010:	91 81       	ldd	r25, Z+1	; 0x01
    1012:	e8 16       	cp	r14, r24
    1014:	f9 06       	cpc	r15, r25
    1016:	60 f3       	brcs	.-40     	; 0xff0 <ClearEEPROM+0x5c>
    1018:	8f ef       	ldi	r24, 0xFF	; 255
    101a:	9f ef       	ldi	r25, 0xFF	; 255
    101c:	f8 01       	movw	r30, r16
    101e:	91 87       	std	Z+9, r25	; 0x09
    1020:	80 87       	std	Z+8, r24	; 0x08
    1022:	93 87       	std	Z+11, r25	; 0x0b
    1024:	82 87       	std	Z+10, r24	; 0x0a
    1026:	81 e0       	ldi	r24, 0x01	; 1
    1028:	84 87       	std	Z+12, r24	; 0x0c
    102a:	0f 90       	pop	r0
    102c:	0f 90       	pop	r0
    102e:	0f 90       	pop	r0
    1030:	0f 90       	pop	r0
    1032:	cf 91       	pop	r28
    1034:	df 91       	pop	r29
    1036:	1f 91       	pop	r17
    1038:	0f 91       	pop	r16
    103a:	ff 90       	pop	r15
    103c:	ef 90       	pop	r14
    103e:	df 90       	pop	r13
    1040:	cf 90       	pop	r12
    1042:	bf 90       	pop	r11
    1044:	af 90       	pop	r10
    1046:	08 95       	ret

00001048 <LoadEEPROMStructure>:
    1048:	3f 92       	push	r3
    104a:	4f 92       	push	r4
    104c:	5f 92       	push	r5
    104e:	6f 92       	push	r6
    1050:	7f 92       	push	r7
    1052:	8f 92       	push	r8
    1054:	9f 92       	push	r9
    1056:	af 92       	push	r10
    1058:	bf 92       	push	r11
    105a:	cf 92       	push	r12
    105c:	df 92       	push	r13
    105e:	ef 92       	push	r14
    1060:	ff 92       	push	r15
    1062:	0f 93       	push	r16
    1064:	1f 93       	push	r17
    1066:	df 93       	push	r29
    1068:	cf 93       	push	r28
    106a:	cd b7       	in	r28, 0x3d	; 61
    106c:	de b7       	in	r29, 0x3e	; 62
    106e:	2e 97       	sbiw	r28, 0x0e	; 14
    1070:	0f b6       	in	r0, 0x3f	; 63
    1072:	f8 94       	cli
    1074:	de bf       	out	0x3e, r29	; 62
    1076:	0f be       	out	0x3f, r0	; 63
    1078:	cd bf       	out	0x3d, r28	; 61
    107a:	5b 01       	movw	r10, r22
    107c:	90 e0       	ldi	r25, 0x00	; 0
    107e:	2d e0       	ldi	r18, 0x0D	; 13
    1080:	30 e0       	ldi	r19, 0x00	; 0
    1082:	82 9f       	mul	r24, r18
    1084:	80 01       	movw	r16, r0
    1086:	83 9f       	mul	r24, r19
    1088:	10 0d       	add	r17, r0
    108a:	92 9f       	mul	r25, r18
    108c:	10 0d       	add	r17, r0
    108e:	11 24       	eor	r1, r1
    1090:	02 5c       	subi	r16, 0xC2	; 194
    1092:	1d 4f       	sbci	r17, 0xFD	; 253
    1094:	81 e0       	ldi	r24, 0x01	; 1
    1096:	d8 01       	movw	r26, r16
    1098:	1c 96       	adiw	r26, 0x0c	; 12
    109a:	8c 93       	st	X, r24
    109c:	1c 97       	sbiw	r26, 0x0c	; 12
    109e:	33 24       	eor	r3, r3
    10a0:	1e 82       	std	Y+6, r1	; 0x06
    10a2:	1d 82       	std	Y+5, r1	; 0x05
    10a4:	88 24       	eor	r8, r8
    10a6:	99 24       	eor	r9, r9
    10a8:	18 87       	std	Y+8, r17	; 0x08
    10aa:	0f 83       	std	Y+7, r16	; 0x07
    10ac:	f8 01       	movw	r30, r16
    10ae:	36 96       	adiw	r30, 0x06	; 6
    10b0:	fa 87       	std	Y+10, r31	; 0x0a
    10b2:	e9 87       	std	Y+9, r30	; 0x09
    10b4:	e4 e0       	ldi	r30, 0x04	; 4
    10b6:	4e 2e       	mov	r4, r30
    10b8:	51 2c       	mov	r5, r1
    10ba:	40 0e       	add	r4, r16
    10bc:	51 1e       	adc	r5, r17
    10be:	c8 01       	movw	r24, r16
    10c0:	02 96       	adiw	r24, 0x02	; 2
    10c2:	9c 87       	std	Y+12, r25	; 0x0c
    10c4:	8b 87       	std	Y+11, r24	; 0x0b
    10c6:	18 96       	adiw	r26, 0x08	; 8
    10c8:	be 87       	std	Y+14, r27	; 0x0e
    10ca:	ad 87       	std	Y+13, r26	; 0x0d
    10cc:	7a e0       	ldi	r23, 0x0A	; 10
    10ce:	67 2e       	mov	r6, r23
    10d0:	71 2c       	mov	r7, r1
    10d2:	60 0e       	add	r6, r16
    10d4:	71 1e       	adc	r7, r17
    10d6:	9c c0       	rjmp	.+312    	; 0x1210 <LoadEEPROMStructure+0x1c8>
    10d8:	f2 01       	movw	r30, r4
    10da:	40 81       	ld	r20, Z
    10dc:	51 81       	ldd	r21, Z+1	; 0x01
    10de:	ab 85       	ldd	r26, Y+11	; 0x0b
    10e0:	bc 85       	ldd	r27, Y+12	; 0x0c
    10e2:	8d 91       	ld	r24, X+
    10e4:	9c 91       	ld	r25, X
    10e6:	96 95       	lsr	r25
    10e8:	87 95       	ror	r24
    10ea:	88 9e       	mul	r8, r24
    10ec:	70 01       	movw	r14, r0
    10ee:	89 9e       	mul	r8, r25
    10f0:	f0 0c       	add	r15, r0
    10f2:	98 9e       	mul	r9, r24
    10f4:	f0 0c       	add	r15, r0
    10f6:	11 24       	eor	r1, r1
    10f8:	ef 81       	ldd	r30, Y+7	; 0x07
    10fa:	f8 85       	ldd	r31, Y+8	; 0x08
    10fc:	80 81       	ld	r24, Z
    10fe:	91 81       	ldd	r25, Z+1	; 0x01
    1100:	e8 0e       	add	r14, r24
    1102:	f9 1e       	adc	r15, r25
    1104:	c4 9e       	mul	r12, r20
    1106:	c0 01       	movw	r24, r0
    1108:	c5 9e       	mul	r12, r21
    110a:	90 0d       	add	r25, r0
    110c:	d4 9e       	mul	r13, r20
    110e:	90 0d       	add	r25, r0
    1110:	11 24       	eor	r1, r1
    1112:	e8 0e       	add	r14, r24
    1114:	f9 1e       	adc	r15, r25
    1116:	c5 01       	movw	r24, r10
    1118:	b7 01       	movw	r22, r14
    111a:	0e 94 00 12 	call	0x2400	; 0x2400 <__eerd_block_m168>
    111e:	f2 01       	movw	r30, r4
    1120:	a0 81       	ld	r26, Z
    1122:	b1 81       	ldd	r27, Z+1	; 0x01
    1124:	bd 01       	movw	r22, r26
    1126:	62 50       	subi	r22, 0x02	; 2
    1128:	70 40       	sbci	r23, 0x00	; 0
    112a:	20 e0       	ldi	r18, 0x00	; 0
    112c:	30 e0       	ldi	r19, 0x00	; 0
    112e:	4f ef       	ldi	r20, 0xFF	; 255
    1130:	5f ef       	ldi	r21, 0xFF	; 255
    1132:	1d c0       	rjmp	.+58     	; 0x116e <LoadEEPROMStructure+0x126>
    1134:	f5 01       	movw	r30, r10
    1136:	e2 0f       	add	r30, r18
    1138:	f3 1f       	adc	r31, r19
    113a:	80 81       	ld	r24, Z
    113c:	48 27       	eor	r20, r24
    113e:	84 2f       	mov	r24, r20
    1140:	82 95       	swap	r24
    1142:	84 27       	eor	r24, r20
    1144:	08 2e       	mov	r0, r24
    1146:	86 95       	lsr	r24
    1148:	86 95       	lsr	r24
    114a:	80 25       	eor	r24, r0
    114c:	08 2e       	mov	r0, r24
    114e:	86 95       	lsr	r24
    1150:	80 25       	eor	r24, r0
    1152:	87 70       	andi	r24, 0x07	; 7
    1154:	04 2e       	mov	r0, r20
    1156:	45 2f       	mov	r20, r21
    1158:	86 95       	lsr	r24
    115a:	07 94       	ror	r0
    115c:	87 95       	ror	r24
    115e:	50 2d       	mov	r21, r0
    1160:	48 27       	eor	r20, r24
    1162:	06 94       	lsr	r0
    1164:	87 95       	ror	r24
    1166:	50 25       	eor	r21, r0
    1168:	48 27       	eor	r20, r24
    116a:	2f 5f       	subi	r18, 0xFF	; 255
    116c:	3f 4f       	sbci	r19, 0xFF	; 255
    116e:	26 17       	cp	r18, r22
    1170:	37 07       	cpc	r19, r23
    1172:	00 f3       	brcs	.-64     	; 0x1134 <LoadEEPROMStructure+0xec>
    1174:	12 97       	sbiw	r26, 0x02	; 2
    1176:	aa 0d       	add	r26, r10
    1178:	bb 1d       	adc	r27, r11
    117a:	8d 91       	ld	r24, X+
    117c:	9c 91       	ld	r25, X
    117e:	9a 83       	std	Y+2, r25	; 0x02
    1180:	89 83       	std	Y+1, r24	; 0x01
    1182:	40 95       	com	r20
    1184:	50 95       	com	r21
    1186:	48 17       	cp	r20, r24
    1188:	59 07       	cpc	r21, r25
    118a:	81 f5       	brne	.+96     	; 0x11ec <LoadEEPROMStructure+0x1a4>
    118c:	d2 01       	movw	r26, r4
    118e:	ed 91       	ld	r30, X+
    1190:	fc 91       	ld	r31, X
    1192:	34 97       	sbiw	r30, 0x04	; 4
    1194:	ea 0d       	add	r30, r10
    1196:	fb 1d       	adc	r31, r11
    1198:	80 81       	ld	r24, Z
    119a:	91 81       	ldd	r25, Z+1	; 0x01
    119c:	9c 83       	std	Y+4, r25	; 0x04
    119e:	8b 83       	std	Y+3, r24	; 0x03
    11a0:	33 20       	and	r3, r3
    11a2:	b9 f0       	breq	.+46     	; 0x11d2 <LoadEEPROMStructure+0x18a>
    11a4:	9c 01       	movw	r18, r24
    11a6:	b0 e4       	ldi	r27, 0x40	; 64
    11a8:	80 30       	cpi	r24, 0x00	; 0
    11aa:	9b 07       	cpc	r25, r27
    11ac:	30 f4       	brcc	.+12     	; 0x11ba <LoadEEPROMStructure+0x172>
    11ae:	f3 01       	movw	r30, r6
    11b0:	80 81       	ld	r24, Z
    11b2:	91 81       	ldd	r25, Z+1	; 0x01
    11b4:	80 50       	subi	r24, 0x00	; 0
    11b6:	90 4c       	sbci	r25, 0xC0	; 192
    11b8:	60 f4       	brcc	.+24     	; 0x11d2 <LoadEEPROMStructure+0x18a>
    11ba:	d3 01       	movw	r26, r6
    11bc:	8d 91       	ld	r24, X+
    11be:	9c 91       	ld	r25, X
    11c0:	82 17       	cp	r24, r18
    11c2:	93 07       	cpc	r25, r19
    11c4:	98 f4       	brcc	.+38     	; 0x11ec <LoadEEPROMStructure+0x1a4>
    11c6:	20 50       	subi	r18, 0x00	; 0
    11c8:	30 4c       	sbci	r19, 0xC0	; 192
    11ca:	18 f0       	brcs	.+6      	; 0x11d2 <LoadEEPROMStructure+0x18a>
    11cc:	80 50       	subi	r24, 0x00	; 0
    11ce:	90 44       	sbci	r25, 0x40	; 64
    11d0:	68 f0       	brcs	.+26     	; 0x11ec <LoadEEPROMStructure+0x1a4>
    11d2:	ad 85       	ldd	r26, Y+13	; 0x0d
    11d4:	be 85       	ldd	r27, Y+14	; 0x0e
    11d6:	cd 92       	st	X+, r12
    11d8:	dc 92       	st	X, r13
    11da:	8b 81       	ldd	r24, Y+3	; 0x03
    11dc:	9c 81       	ldd	r25, Y+4	; 0x04
    11de:	f3 01       	movw	r30, r6
    11e0:	91 83       	std	Z+1, r25	; 0x01
    11e2:	80 83       	st	Z, r24
    11e4:	fe 82       	std	Y+6, r15	; 0x06
    11e6:	ed 82       	std	Y+5, r14	; 0x05
    11e8:	33 24       	eor	r3, r3
    11ea:	33 94       	inc	r3
    11ec:	08 94       	sec
    11ee:	c1 1c       	adc	r12, r1
    11f0:	d1 1c       	adc	r13, r1
    11f2:	a9 85       	ldd	r26, Y+9	; 0x09
    11f4:	ba 85       	ldd	r27, Y+10	; 0x0a
    11f6:	8d 91       	ld	r24, X+
    11f8:	9c 91       	ld	r25, X
    11fa:	c8 16       	cp	r12, r24
    11fc:	d9 06       	cpc	r13, r25
    11fe:	08 f4       	brcc	.+2      	; 0x1202 <LoadEEPROMStructure+0x1ba>
    1200:	6b cf       	rjmp	.-298    	; 0x10d8 <LoadEEPROMStructure+0x90>
    1202:	08 94       	sec
    1204:	81 1c       	adc	r8, r1
    1206:	91 1c       	adc	r9, r1
    1208:	b2 e0       	ldi	r27, 0x02	; 2
    120a:	8b 16       	cp	r8, r27
    120c:	91 04       	cpc	r9, r1
    120e:	19 f0       	breq	.+6      	; 0x1216 <LoadEEPROMStructure+0x1ce>
    1210:	cc 24       	eor	r12, r12
    1212:	dd 24       	eor	r13, r13
    1214:	ee cf       	rjmp	.-36     	; 0x11f2 <LoadEEPROMStructure+0x1aa>
    1216:	33 20       	and	r3, r3
    1218:	41 f0       	breq	.+16     	; 0x122a <LoadEEPROMStructure+0x1e2>
    121a:	f8 01       	movw	r30, r16
    121c:	44 81       	ldd	r20, Z+4	; 0x04
    121e:	55 81       	ldd	r21, Z+5	; 0x05
    1220:	c5 01       	movw	r24, r10
    1222:	6d 81       	ldd	r22, Y+5	; 0x05
    1224:	7e 81       	ldd	r23, Y+6	; 0x06
    1226:	0e 94 00 12 	call	0x2400	; 0x2400 <__eerd_block_m168>
    122a:	83 2d       	mov	r24, r3
    122c:	2e 96       	adiw	r28, 0x0e	; 14
    122e:	0f b6       	in	r0, 0x3f	; 63
    1230:	f8 94       	cli
    1232:	de bf       	out	0x3e, r29	; 62
    1234:	0f be       	out	0x3f, r0	; 63
    1236:	cd bf       	out	0x3d, r28	; 61
    1238:	cf 91       	pop	r28
    123a:	df 91       	pop	r29
    123c:	1f 91       	pop	r17
    123e:	0f 91       	pop	r16
    1240:	ff 90       	pop	r15
    1242:	ef 90       	pop	r14
    1244:	df 90       	pop	r13
    1246:	cf 90       	pop	r12
    1248:	bf 90       	pop	r11
    124a:	af 90       	pop	r10
    124c:	9f 90       	pop	r9
    124e:	8f 90       	pop	r8
    1250:	7f 90       	pop	r7
    1252:	6f 90       	pop	r6
    1254:	5f 90       	pop	r5
    1256:	4f 90       	pop	r4
    1258:	3f 90       	pop	r3
    125a:	08 95       	ret

0000125c <get_int_from_fmt_string.1367>:
    125c:	2f 92       	push	r2
    125e:	3f 92       	push	r3
    1260:	cf 93       	push	r28
    1262:	df 93       	push	r29
    1264:	e1 01       	movw	r28, r2
    1266:	40 e0       	ldi	r20, 0x00	; 0
    1268:	5a e0       	ldi	r21, 0x0A	; 10
    126a:	14 c0       	rjmp	.+40     	; 0x1294 <get_int_from_fmt_string.1367+0x38>
    126c:	af 81       	ldd	r26, Y+7	; 0x07
    126e:	b8 85       	ldd	r27, Y+8	; 0x08
    1270:	9d 01       	movw	r18, r26
    1272:	2f 5f       	subi	r18, 0xFF	; 255
    1274:	3f 4f       	sbci	r19, 0xFF	; 255
    1276:	38 87       	std	Y+8, r19	; 0x08
    1278:	2f 83       	std	Y+7, r18	; 0x07
    127a:	89 85       	ldd	r24, Y+9	; 0x09
    127c:	88 23       	and	r24, r24
    127e:	19 f0       	breq	.+6      	; 0x1286 <get_int_from_fmt_string.1367+0x2a>
    1280:	f9 01       	movw	r30, r18
    1282:	84 91       	lpm	r24, Z+
    1284:	02 c0       	rjmp	.+4      	; 0x128a <get_int_from_fmt_string.1367+0x2e>
    1286:	11 96       	adiw	r26, 0x01	; 1
    1288:	8c 91       	ld	r24, X
    128a:	45 9f       	mul	r20, r21
    128c:	40 2d       	mov	r20, r0
    128e:	11 24       	eor	r1, r1
    1290:	49 0f       	add	r20, r25
    1292:	8e 83       	std	Y+6, r24	; 0x06
    1294:	9e 81       	ldd	r25, Y+6	; 0x06
    1296:	90 53       	subi	r25, 0x30	; 48
    1298:	9a 30       	cpi	r25, 0x0A	; 10
    129a:	40 f3       	brcs	.-48     	; 0x126c <get_int_from_fmt_string.1367+0x10>
    129c:	84 2f       	mov	r24, r20
    129e:	df 91       	pop	r29
    12a0:	cf 91       	pop	r28
    12a2:	3f 90       	pop	r3
    12a4:	2f 90       	pop	r2
    12a6:	08 95       	ret

000012a8 <dsprintf_>:
    12a8:	2f 92       	push	r2
    12aa:	3f 92       	push	r3
    12ac:	4f 92       	push	r4
    12ae:	5f 92       	push	r5
    12b0:	6f 92       	push	r6
    12b2:	7f 92       	push	r7
    12b4:	8f 92       	push	r8
    12b6:	9f 92       	push	r9
    12b8:	af 92       	push	r10
    12ba:	bf 92       	push	r11
    12bc:	cf 92       	push	r12
    12be:	df 92       	push	r13
    12c0:	ef 92       	push	r14
    12c2:	ff 92       	push	r15
    12c4:	0f 93       	push	r16
    12c6:	1f 93       	push	r17
    12c8:	df 93       	push	r29
    12ca:	cf 93       	push	r28
    12cc:	cd b7       	in	r28, 0x3d	; 61
    12ce:	de b7       	in	r29, 0x3e	; 62
    12d0:	6f 97       	sbiw	r28, 0x1f	; 31
    12d2:	0f b6       	in	r0, 0x3f	; 63
    12d4:	f8 94       	cli
    12d6:	de bf       	out	0x3e, r29	; 62
    12d8:	0f be       	out	0x3f, r0	; 63
    12da:	cd bf       	out	0x3d, r28	; 61
    12dc:	6b 8f       	std	Y+27, r22	; 0x1b
    12de:	7c 8f       	std	Y+28, r23	; 0x1c
    12e0:	fa 01       	movw	r30, r20
    12e2:	79 01       	movw	r14, r18
    12e4:	8a 87       	std	Y+10, r24	; 0x0a
    12e6:	59 87       	std	Y+9, r21	; 0x09
    12e8:	48 87       	std	Y+8, r20	; 0x08
    12ea:	6c 83       	std	Y+4, r22	; 0x04
    12ec:	7d 83       	std	Y+5, r23	; 0x05
    12ee:	88 23       	and	r24, r24
    12f0:	11 f0       	breq	.+4      	; 0x12f6 <dsprintf_+0x4e>
    12f2:	44 91       	lpm	r20, Z+
    12f4:	01 c0       	rjmp	.+2      	; 0x12f8 <dsprintf_+0x50>
    12f6:	40 81       	ld	r20, Z
    12f8:	4f 83       	std	Y+7, r20	; 0x07
    12fa:	1e c2       	rjmp	.+1084   	; 0x1738 <dsprintf_+0x490>
    12fc:	85 32       	cpi	r24, 0x25	; 37
    12fe:	09 f0       	breq	.+2      	; 0x1302 <dsprintf_+0x5a>
    1300:	05 c2       	rjmp	.+1034   	; 0x170c <dsprintf_+0x464>
    1302:	a8 85       	ldd	r26, Y+8	; 0x08
    1304:	b9 85       	ldd	r27, Y+9	; 0x09
    1306:	fd 01       	movw	r30, r26
    1308:	31 96       	adiw	r30, 0x01	; 1
    130a:	f9 87       	std	Y+9, r31	; 0x09
    130c:	e8 87       	std	Y+8, r30	; 0x08
    130e:	9a 85       	ldd	r25, Y+10	; 0x0a
    1310:	99 23       	and	r25, r25
    1312:	11 f0       	breq	.+4      	; 0x1318 <dsprintf_+0x70>
    1314:	84 91       	lpm	r24, Z+
    1316:	02 c0       	rjmp	.+4      	; 0x131c <dsprintf_+0x74>
    1318:	11 96       	adiw	r26, 0x01	; 1
    131a:	8c 91       	ld	r24, X
    131c:	8f 83       	std	Y+7, r24	; 0x07
    131e:	85 32       	cpi	r24, 0x25	; 37
    1320:	09 f4       	brne	.+2      	; 0x1324 <dsprintf_+0x7c>
    1322:	f4 c1       	rjmp	.+1000   	; 0x170c <dsprintf_+0x464>
    1324:	1e 82       	std	Y+6, r1	; 0x06
    1326:	1b 82       	std	Y+3, r1	; 0x03
    1328:	18 8e       	std	Y+24, r1	; 0x18
    132a:	1f 8a       	std	Y+23, r1	; 0x17
    132c:	0f c0       	rjmp	.+30     	; 0x134c <dsprintf_+0xa4>
    132e:	e1 e0       	ldi	r30, 0x01	; 1
    1330:	eb 83       	std	Y+3, r30	; 0x03
    1332:	a8 85       	ldd	r26, Y+8	; 0x08
    1334:	b9 85       	ldd	r27, Y+9	; 0x09
    1336:	fd 01       	movw	r30, r26
    1338:	31 96       	adiw	r30, 0x01	; 1
    133a:	f9 87       	std	Y+9, r31	; 0x09
    133c:	e8 87       	std	Y+8, r30	; 0x08
    133e:	99 23       	and	r25, r25
    1340:	11 f0       	breq	.+4      	; 0x1346 <dsprintf_+0x9e>
    1342:	84 91       	lpm	r24, Z+
    1344:	02 c0       	rjmp	.+4      	; 0x134a <dsprintf_+0xa2>
    1346:	11 96       	adiw	r26, 0x01	; 1
    1348:	8c 91       	ld	r24, X
    134a:	8f 83       	std	Y+7, r24	; 0x07
    134c:	8f 81       	ldd	r24, Y+7	; 0x07
    134e:	80 33       	cpi	r24, 0x30	; 48
    1350:	19 f4       	brne	.+6      	; 0x1358 <dsprintf_+0xb0>
    1352:	f1 e0       	ldi	r31, 0x01	; 1
    1354:	f8 8f       	std	Y+24, r31	; 0x18
    1356:	ed cf       	rjmp	.-38     	; 0x1332 <dsprintf_+0x8a>
    1358:	8d 32       	cpi	r24, 0x2D	; 45
    135a:	19 f4       	brne	.+6      	; 0x1362 <dsprintf_+0xba>
    135c:	81 e0       	ldi	r24, 0x01	; 1
    135e:	8f 8b       	std	Y+23, r24	; 0x17
    1360:	e8 cf       	rjmp	.-48     	; 0x1332 <dsprintf_+0x8a>
    1362:	8b 32       	cpi	r24, 0x2B	; 43
    1364:	21 f3       	breq	.-56     	; 0x132e <dsprintf_+0x86>
    1366:	1e 01       	movw	r2, r28
    1368:	08 94       	sec
    136a:	21 1c       	adc	r2, r1
    136c:	31 1c       	adc	r3, r1
    136e:	0e 94 2e 09 	call	0x125c	; 0x125c <get_int_from_fmt_string.1367>
    1372:	8a 83       	std	Y+2, r24	; 0x02
    1374:	8f 81       	ldd	r24, Y+7	; 0x07
    1376:	8e 32       	cpi	r24, 0x2E	; 46
    1378:	19 f0       	breq	.+6      	; 0x1380 <dsprintf_+0xd8>
    137a:	22 24       	eor	r2, r2
    137c:	55 24       	eor	r5, r5
    137e:	17 c0       	rjmp	.+46     	; 0x13ae <dsprintf_+0x106>
    1380:	a8 85       	ldd	r26, Y+8	; 0x08
    1382:	b9 85       	ldd	r27, Y+9	; 0x09
    1384:	fd 01       	movw	r30, r26
    1386:	31 96       	adiw	r30, 0x01	; 1
    1388:	f9 87       	std	Y+9, r31	; 0x09
    138a:	e8 87       	std	Y+8, r30	; 0x08
    138c:	8a 85       	ldd	r24, Y+10	; 0x0a
    138e:	88 23       	and	r24, r24
    1390:	11 f0       	breq	.+4      	; 0x1396 <dsprintf_+0xee>
    1392:	84 91       	lpm	r24, Z+
    1394:	02 c0       	rjmp	.+4      	; 0x139a <dsprintf_+0xf2>
    1396:	11 96       	adiw	r26, 0x01	; 1
    1398:	8c 91       	ld	r24, X
    139a:	8f 83       	std	Y+7, r24	; 0x07
    139c:	1e 01       	movw	r2, r28
    139e:	08 94       	sec
    13a0:	21 1c       	adc	r2, r1
    13a2:	31 1c       	adc	r3, r1
    13a4:	0e 94 2e 09 	call	0x125c	; 0x125c <get_int_from_fmt_string.1367>
    13a8:	28 2e       	mov	r2, r24
    13aa:	55 24       	eor	r5, r5
    13ac:	53 94       	inc	r5
    13ae:	8f 81       	ldd	r24, Y+7	; 0x07
    13b0:	8c 36       	cpi	r24, 0x6C	; 108
    13b2:	11 f0       	breq	.+4      	; 0x13b8 <dsprintf_+0x110>
    13b4:	80 e0       	ldi	r24, 0x00	; 0
    13b6:	0f c0       	rjmp	.+30     	; 0x13d6 <dsprintf_+0x12e>
    13b8:	a8 85       	ldd	r26, Y+8	; 0x08
    13ba:	b9 85       	ldd	r27, Y+9	; 0x09
    13bc:	fd 01       	movw	r30, r26
    13be:	31 96       	adiw	r30, 0x01	; 1
    13c0:	f9 87       	std	Y+9, r31	; 0x09
    13c2:	e8 87       	std	Y+8, r30	; 0x08
    13c4:	8a 85       	ldd	r24, Y+10	; 0x0a
    13c6:	88 23       	and	r24, r24
    13c8:	11 f0       	breq	.+4      	; 0x13ce <dsprintf_+0x126>
    13ca:	84 91       	lpm	r24, Z+
    13cc:	02 c0       	rjmp	.+4      	; 0x13d2 <dsprintf_+0x12a>
    13ce:	11 96       	adiw	r26, 0x01	; 1
    13d0:	8c 91       	ld	r24, X
    13d2:	8f 83       	std	Y+7, r24	; 0x07
    13d4:	81 e0       	ldi	r24, 0x01	; 1
    13d6:	1f 81       	ldd	r17, Y+7	; 0x07
    13d8:	11 37       	cpi	r17, 0x71	; 113
    13da:	09 f4       	brne	.+2      	; 0x13de <dsprintf_+0x136>
    13dc:	d6 c0       	rjmp	.+428    	; 0x158a <dsprintf_+0x2e2>
    13de:	12 37       	cpi	r17, 0x72	; 114
    13e0:	50 f4       	brcc	.+20     	; 0x13f6 <dsprintf_+0x14e>
    13e2:	13 36       	cpi	r17, 0x63	; 99
    13e4:	09 f4       	brne	.+2      	; 0x13e8 <dsprintf_+0x140>
    13e6:	c4 c0       	rjmp	.+392    	; 0x1570 <dsprintf_+0x2c8>
    13e8:	14 36       	cpi	r17, 0x64	; 100
    13ea:	09 f4       	brne	.+2      	; 0x13ee <dsprintf_+0x146>
    13ec:	fa c0       	rjmp	.+500    	; 0x15e2 <dsprintf_+0x33a>
    13ee:	13 35       	cpi	r17, 0x53	; 83
    13f0:	09 f0       	breq	.+2      	; 0x13f4 <dsprintf_+0x14c>
    13f2:	94 c1       	rjmp	.+808    	; 0x171c <dsprintf_+0x474>
    13f4:	09 c0       	rjmp	.+18     	; 0x1408 <dsprintf_+0x160>
    13f6:	15 37       	cpi	r17, 0x75	; 117
    13f8:	09 f4       	brne	.+2      	; 0x13fc <dsprintf_+0x154>
    13fa:	f3 c0       	rjmp	.+486    	; 0x15e2 <dsprintf_+0x33a>
    13fc:	17 37       	cpi	r17, 0x77	; 119
    13fe:	09 f4       	brne	.+2      	; 0x1402 <dsprintf_+0x15a>
    1400:	c4 c0       	rjmp	.+392    	; 0x158a <dsprintf_+0x2e2>
    1402:	13 37       	cpi	r17, 0x73	; 115
    1404:	09 f0       	breq	.+2      	; 0x1408 <dsprintf_+0x160>
    1406:	8a c1       	rjmp	.+788    	; 0x171c <dsprintf_+0x474>
    1408:	62 e0       	ldi	r22, 0x02	; 2
    140a:	66 2e       	mov	r6, r22
    140c:	71 2c       	mov	r7, r1
    140e:	6e 0c       	add	r6, r14
    1410:	7f 1c       	adc	r7, r15
    1412:	f7 01       	movw	r30, r14
    1414:	60 81       	ld	r22, Z
    1416:	71 81       	ldd	r23, Z+1	; 0x01
    1418:	19 82       	std	Y+1, r1	; 0x01
    141a:	fb 01       	movw	r30, r22
    141c:	04 c0       	rjmp	.+8      	; 0x1426 <dsprintf_+0x17e>
    141e:	89 81       	ldd	r24, Y+1	; 0x01
    1420:	8f 5f       	subi	r24, 0xFF	; 255
    1422:	89 83       	std	Y+1, r24	; 0x01
    1424:	31 96       	adiw	r30, 0x01	; 1
    1426:	13 35       	cpi	r17, 0x53	; 83
    1428:	11 f0       	breq	.+4      	; 0x142e <dsprintf_+0x186>
    142a:	80 81       	ld	r24, Z
    142c:	01 c0       	rjmp	.+2      	; 0x1430 <dsprintf_+0x188>
    142e:	84 91       	lpm	r24, Z+
    1430:	81 11       	cpse	r24, r1
    1432:	81 e0       	ldi	r24, 0x01	; 1
    1434:	88 23       	and	r24, r24
    1436:	99 f7       	brne	.-26     	; 0x141e <dsprintf_+0x176>
    1438:	55 20       	and	r5, r5
    143a:	21 f0       	breq	.+8      	; 0x1444 <dsprintf_+0x19c>
    143c:	89 81       	ldd	r24, Y+1	; 0x01
    143e:	28 16       	cp	r2, r24
    1440:	08 f4       	brcc	.+2      	; 0x1444 <dsprintf_+0x19c>
    1442:	29 82       	std	Y+1, r2	; 0x01
    1444:	14 36       	cpi	r17, 0x64	; 100
    1446:	11 f0       	breq	.+4      	; 0x144c <dsprintf_+0x1a4>
    1448:	15 37       	cpi	r17, 0x75	; 117
    144a:	b9 f5       	brne	.+110    	; 0x14ba <dsprintf_+0x212>
    144c:	f8 8d       	ldd	r31, Y+24	; 0x18
    144e:	ff 23       	and	r31, r31
    1450:	49 f1       	breq	.+82     	; 0x14a4 <dsprintf_+0x1fc>
    1452:	8e 81       	ldd	r24, Y+6	; 0x06
    1454:	88 23       	and	r24, r24
    1456:	29 f0       	breq	.+10     	; 0x1462 <dsprintf_+0x1ba>
    1458:	ec 81       	ldd	r30, Y+4	; 0x04
    145a:	fd 81       	ldd	r31, Y+5	; 0x05
    145c:	8d e2       	ldi	r24, 0x2D	; 45
    145e:	80 83       	st	Z, r24
    1460:	07 c0       	rjmp	.+14     	; 0x1470 <dsprintf_+0x1c8>
    1462:	8b 81       	ldd	r24, Y+3	; 0x03
    1464:	88 23       	and	r24, r24
    1466:	c9 f0       	breq	.+50     	; 0x149a <dsprintf_+0x1f2>
    1468:	ec 81       	ldd	r30, Y+4	; 0x04
    146a:	fd 81       	ldd	r31, Y+5	; 0x05
    146c:	9b e2       	ldi	r25, 0x2B	; 43
    146e:	90 83       	st	Z, r25
    1470:	8c 81       	ldd	r24, Y+4	; 0x04
    1472:	9d 81       	ldd	r25, Y+5	; 0x05
    1474:	01 96       	adiw	r24, 0x01	; 1
    1476:	9d 83       	std	Y+5, r25	; 0x05
    1478:	8c 83       	std	Y+4, r24	; 0x04
    147a:	8a 81       	ldd	r24, Y+2	; 0x02
    147c:	88 23       	and	r24, r24
    147e:	69 f0       	breq	.+26     	; 0x149a <dsprintf_+0x1f2>
    1480:	0a c0       	rjmp	.+20     	; 0x1496 <dsprintf_+0x1ee>
    1482:	ec 81       	ldd	r30, Y+4	; 0x04
    1484:	fd 81       	ldd	r31, Y+5	; 0x05
    1486:	80 e3       	ldi	r24, 0x30	; 48
    1488:	80 83       	st	Z, r24
    148a:	8c 81       	ldd	r24, Y+4	; 0x04
    148c:	9d 81       	ldd	r25, Y+5	; 0x05
    148e:	01 96       	adiw	r24, 0x01	; 1
    1490:	9d 83       	std	Y+5, r25	; 0x05
    1492:	8c 83       	std	Y+4, r24	; 0x04
    1494:	8a 81       	ldd	r24, Y+2	; 0x02
    1496:	81 50       	subi	r24, 0x01	; 1
    1498:	8a 83       	std	Y+2, r24	; 0x02
    149a:	9a 81       	ldd	r25, Y+2	; 0x02
    149c:	89 81       	ldd	r24, Y+1	; 0x01
    149e:	89 17       	cp	r24, r25
    14a0:	80 f3       	brcs	.-32     	; 0x1482 <dsprintf_+0x1da>
    14a2:	0b c0       	rjmp	.+22     	; 0x14ba <dsprintf_+0x212>
    14a4:	9a 81       	ldd	r25, Y+2	; 0x02
    14a6:	99 23       	and	r25, r25
    14a8:	41 f0       	breq	.+16     	; 0x14ba <dsprintf_+0x212>
    14aa:	8e 81       	ldd	r24, Y+6	; 0x06
    14ac:	88 23       	and	r24, r24
    14ae:	19 f4       	brne	.+6      	; 0x14b6 <dsprintf_+0x20e>
    14b0:	8b 81       	ldd	r24, Y+3	; 0x03
    14b2:	88 23       	and	r24, r24
    14b4:	11 f0       	breq	.+4      	; 0x14ba <dsprintf_+0x212>
    14b6:	91 50       	subi	r25, 0x01	; 1
    14b8:	9a 83       	std	Y+2, r25	; 0x02
    14ba:	73 01       	movw	r14, r6
    14bc:	9f 89       	ldd	r25, Y+23	; 0x17
    14be:	99 23       	and	r25, r25
    14c0:	69 f0       	breq	.+26     	; 0x14dc <dsprintf_+0x234>
    14c2:	10 c0       	rjmp	.+32     	; 0x14e4 <dsprintf_+0x23c>
    14c4:	ec 81       	ldd	r30, Y+4	; 0x04
    14c6:	fd 81       	ldd	r31, Y+5	; 0x05
    14c8:	80 e2       	ldi	r24, 0x20	; 32
    14ca:	80 83       	st	Z, r24
    14cc:	8c 81       	ldd	r24, Y+4	; 0x04
    14ce:	9d 81       	ldd	r25, Y+5	; 0x05
    14d0:	01 96       	adiw	r24, 0x01	; 1
    14d2:	9d 83       	std	Y+5, r25	; 0x05
    14d4:	8c 83       	std	Y+4, r24	; 0x04
    14d6:	8a 81       	ldd	r24, Y+2	; 0x02
    14d8:	81 50       	subi	r24, 0x01	; 1
    14da:	8a 83       	std	Y+2, r24	; 0x02
    14dc:	9a 81       	ldd	r25, Y+2	; 0x02
    14de:	89 81       	ldd	r24, Y+1	; 0x01
    14e0:	89 17       	cp	r24, r25
    14e2:	80 f3       	brcs	.-32     	; 0x14c4 <dsprintf_+0x21c>
    14e4:	8f 81       	ldd	r24, Y+7	; 0x07
    14e6:	84 36       	cpi	r24, 0x64	; 100
    14e8:	29 f0       	breq	.+10     	; 0x14f4 <dsprintf_+0x24c>
    14ea:	85 37       	cpi	r24, 0x75	; 117
    14ec:	19 f0       	breq	.+6      	; 0x14f4 <dsprintf_+0x24c>
    14ee:	98 8d       	ldd	r25, Y+24	; 0x18
    14f0:	99 23       	and	r25, r25
    14f2:	a1 f4       	brne	.+40     	; 0x151c <dsprintf_+0x274>
    14f4:	8e 81       	ldd	r24, Y+6	; 0x06
    14f6:	88 23       	and	r24, r24
    14f8:	29 f0       	breq	.+10     	; 0x1504 <dsprintf_+0x25c>
    14fa:	ec 81       	ldd	r30, Y+4	; 0x04
    14fc:	fd 81       	ldd	r31, Y+5	; 0x05
    14fe:	8d e2       	ldi	r24, 0x2D	; 45
    1500:	80 83       	st	Z, r24
    1502:	07 c0       	rjmp	.+14     	; 0x1512 <dsprintf_+0x26a>
    1504:	8b 81       	ldd	r24, Y+3	; 0x03
    1506:	88 23       	and	r24, r24
    1508:	49 f0       	breq	.+18     	; 0x151c <dsprintf_+0x274>
    150a:	ec 81       	ldd	r30, Y+4	; 0x04
    150c:	fd 81       	ldd	r31, Y+5	; 0x05
    150e:	9b e2       	ldi	r25, 0x2B	; 43
    1510:	90 83       	st	Z, r25
    1512:	8c 81       	ldd	r24, Y+4	; 0x04
    1514:	9d 81       	ldd	r25, Y+5	; 0x05
    1516:	01 96       	adiw	r24, 0x01	; 1
    1518:	9d 83       	std	Y+5, r25	; 0x05
    151a:	8c 83       	std	Y+4, r24	; 0x04
    151c:	49 81       	ldd	r20, Y+1	; 0x01
    151e:	9b 01       	movw	r18, r22
    1520:	13 c0       	rjmp	.+38     	; 0x1548 <dsprintf_+0x2a0>
    1522:	8f 81       	ldd	r24, Y+7	; 0x07
    1524:	83 35       	cpi	r24, 0x53	; 83
    1526:	19 f0       	breq	.+6      	; 0x152e <dsprintf_+0x286>
    1528:	f9 01       	movw	r30, r18
    152a:	80 81       	ld	r24, Z
    152c:	02 c0       	rjmp	.+4      	; 0x1532 <dsprintf_+0x28a>
    152e:	f9 01       	movw	r30, r18
    1530:	84 91       	lpm	r24, Z+
    1532:	ec 81       	ldd	r30, Y+4	; 0x04
    1534:	fd 81       	ldd	r31, Y+5	; 0x05
    1536:	80 83       	st	Z, r24
    1538:	8c 81       	ldd	r24, Y+4	; 0x04
    153a:	9d 81       	ldd	r25, Y+5	; 0x05
    153c:	01 96       	adiw	r24, 0x01	; 1
    153e:	9d 83       	std	Y+5, r25	; 0x05
    1540:	8c 83       	std	Y+4, r24	; 0x04
    1542:	41 50       	subi	r20, 0x01	; 1
    1544:	2f 5f       	subi	r18, 0xFF	; 255
    1546:	3f 4f       	sbci	r19, 0xFF	; 255
    1548:	44 23       	and	r20, r20
    154a:	59 f7       	brne	.-42     	; 0x1522 <dsprintf_+0x27a>
    154c:	0c c0       	rjmp	.+24     	; 0x1566 <dsprintf_+0x2be>
    154e:	ec 81       	ldd	r30, Y+4	; 0x04
    1550:	fd 81       	ldd	r31, Y+5	; 0x05
    1552:	80 e2       	ldi	r24, 0x20	; 32
    1554:	80 83       	st	Z, r24
    1556:	8c 81       	ldd	r24, Y+4	; 0x04
    1558:	9d 81       	ldd	r25, Y+5	; 0x05
    155a:	01 96       	adiw	r24, 0x01	; 1
    155c:	9d 83       	std	Y+5, r25	; 0x05
    155e:	8c 83       	std	Y+4, r24	; 0x04
    1560:	8a 81       	ldd	r24, Y+2	; 0x02
    1562:	81 50       	subi	r24, 0x01	; 1
    1564:	8a 83       	std	Y+2, r24	; 0x02
    1566:	9a 81       	ldd	r25, Y+2	; 0x02
    1568:	89 81       	ldd	r24, Y+1	; 0x01
    156a:	89 17       	cp	r24, r25
    156c:	80 f3       	brcs	.-32     	; 0x154e <dsprintf_+0x2a6>
    156e:	d6 c0       	rjmp	.+428    	; 0x171c <dsprintf_+0x474>
    1570:	f7 01       	movw	r30, r14
    1572:	80 81       	ld	r24, Z
    1574:	8b 87       	std	Y+11, r24	; 0x0b
    1576:	f1 e0       	ldi	r31, 0x01	; 1
    1578:	f9 83       	std	Y+1, r31	; 0x01
    157a:	82 e0       	ldi	r24, 0x02	; 2
    157c:	90 e0       	ldi	r25, 0x00	; 0
    157e:	e8 0e       	add	r14, r24
    1580:	f9 1e       	adc	r15, r25
    1582:	be 01       	movw	r22, r28
    1584:	65 5f       	subi	r22, 0xF5	; 245
    1586:	7f 4f       	sbci	r23, 0xFF	; 255
    1588:	99 cf       	rjmp	.-206    	; 0x14bc <dsprintf_+0x214>
    158a:	55 20       	and	r5, r5
    158c:	31 f4       	brne	.+12     	; 0x159a <dsprintf_+0x2f2>
    158e:	f7 01       	movw	r30, r14
    1590:	20 80       	ld	r2, Z
    1592:	82 e0       	ldi	r24, 0x02	; 2
    1594:	90 e0       	ldi	r25, 0x00	; 0
    1596:	e8 0e       	add	r14, r24
    1598:	f9 1e       	adc	r15, r25
    159a:	17 37       	cpi	r17, 0x77	; 119
    159c:	f1 f4       	brne	.+60     	; 0x15da <dsprintf_+0x332>
    159e:	ec 81       	ldd	r30, Y+4	; 0x04
    15a0:	fd 81       	ldd	r31, Y+5	; 0x05
    15a2:	4b 8d       	ldd	r20, Y+27	; 0x1b
    15a4:	5c 8d       	ldd	r21, Y+28	; 0x1c
    15a6:	6a 81       	ldd	r22, Y+2	; 0x02
    15a8:	9f 01       	movw	r18, r30
    15aa:	24 1b       	sub	r18, r20
    15ac:	35 0b       	sbc	r19, r21
    15ae:	86 2f       	mov	r24, r22
    15b0:	90 e0       	ldi	r25, 0x00	; 0
    15b2:	82 17       	cp	r24, r18
    15b4:	93 07       	cpc	r25, r19
    15b6:	14 f4       	brge	.+4      	; 0x15bc <dsprintf_+0x314>
    15b8:	1a 82       	std	Y+2, r1	; 0x02
    15ba:	0f c0       	rjmp	.+30     	; 0x15da <dsprintf_+0x332>
    15bc:	6e 1b       	sub	r22, r30
    15be:	64 0f       	add	r22, r20
    15c0:	6a 83       	std	Y+2, r22	; 0x02
    15c2:	0b c0       	rjmp	.+22     	; 0x15da <dsprintf_+0x332>
    15c4:	ec 81       	ldd	r30, Y+4	; 0x04
    15c6:	fd 81       	ldd	r31, Y+5	; 0x05
    15c8:	20 82       	st	Z, r2
    15ca:	8c 81       	ldd	r24, Y+4	; 0x04
    15cc:	9d 81       	ldd	r25, Y+5	; 0x05
    15ce:	01 96       	adiw	r24, 0x01	; 1
    15d0:	9d 83       	std	Y+5, r25	; 0x05
    15d2:	8c 83       	std	Y+4, r24	; 0x04
    15d4:	8a 81       	ldd	r24, Y+2	; 0x02
    15d6:	81 50       	subi	r24, 0x01	; 1
    15d8:	8a 83       	std	Y+2, r24	; 0x02
    15da:	8a 81       	ldd	r24, Y+2	; 0x02
    15dc:	88 23       	and	r24, r24
    15de:	91 f7       	brne	.-28     	; 0x15c4 <dsprintf_+0x31c>
    15e0:	9d c0       	rjmp	.+314    	; 0x171c <dsprintf_+0x474>
    15e2:	88 23       	and	r24, r24
    15e4:	c9 f0       	breq	.+50     	; 0x1618 <dsprintf_+0x370>
    15e6:	54 e0       	ldi	r21, 0x04	; 4
    15e8:	65 2e       	mov	r6, r21
    15ea:	71 2c       	mov	r7, r1
    15ec:	6e 0c       	add	r6, r14
    15ee:	7f 1c       	adc	r7, r15
    15f0:	f7 01       	movw	r30, r14
    15f2:	c0 80       	ld	r12, Z
    15f4:	d1 80       	ldd	r13, Z+1	; 0x01
    15f6:	e2 80       	ldd	r14, Z+2	; 0x02
    15f8:	f3 80       	ldd	r15, Z+3	; 0x03
    15fa:	14 36       	cpi	r17, 0x64	; 100
    15fc:	09 f5       	brne	.+66     	; 0x1640 <dsprintf_+0x398>
    15fe:	f7 fe       	sbrs	r15, 7
    1600:	1f c0       	rjmp	.+62     	; 0x1640 <dsprintf_+0x398>
    1602:	f1 e0       	ldi	r31, 0x01	; 1
    1604:	fe 83       	std	Y+6, r31	; 0x06
    1606:	f0 94       	com	r15
    1608:	e0 94       	com	r14
    160a:	d0 94       	com	r13
    160c:	c0 94       	com	r12
    160e:	c1 1c       	adc	r12, r1
    1610:	d1 1c       	adc	r13, r1
    1612:	e1 1c       	adc	r14, r1
    1614:	f1 1c       	adc	r15, r1
    1616:	14 c0       	rjmp	.+40     	; 0x1640 <dsprintf_+0x398>
    1618:	f7 01       	movw	r30, r14
    161a:	20 81       	ld	r18, Z
    161c:	31 81       	ldd	r19, Z+1	; 0x01
    161e:	14 36       	cpi	r17, 0x64	; 100
    1620:	39 f4       	brne	.+14     	; 0x1630 <dsprintf_+0x388>
    1622:	37 ff       	sbrs	r19, 7
    1624:	05 c0       	rjmp	.+10     	; 0x1630 <dsprintf_+0x388>
    1626:	f1 e0       	ldi	r31, 0x01	; 1
    1628:	fe 83       	std	Y+6, r31	; 0x06
    162a:	30 95       	com	r19
    162c:	21 95       	neg	r18
    162e:	3f 4f       	sbci	r19, 0xFF	; 255
    1630:	42 e0       	ldi	r20, 0x02	; 2
    1632:	64 2e       	mov	r6, r20
    1634:	71 2c       	mov	r7, r1
    1636:	6e 0c       	add	r6, r14
    1638:	7f 1c       	adc	r7, r15
    163a:	69 01       	movw	r12, r18
    163c:	ee 24       	eor	r14, r14
    163e:	ff 24       	eor	r15, r15
    1640:	9a e0       	ldi	r25, 0x0A	; 10
    1642:	39 2e       	mov	r3, r25
    1644:	81 2c       	mov	r8, r1
    1646:	8a ec       	ldi	r24, 0xCA	; 202
    1648:	98 2e       	mov	r9, r24
    164a:	8a e9       	ldi	r24, 0x9A	; 154
    164c:	a8 2e       	mov	r10, r24
    164e:	8b e3       	ldi	r24, 0x3B	; 59
    1650:	b8 2e       	mov	r11, r24
    1652:	00 e0       	ldi	r16, 0x00	; 0
    1654:	55 20       	and	r5, r5
    1656:	59 f0       	breq	.+22     	; 0x166e <dsprintf_+0x3c6>
    1658:	32 14       	cp	r3, r2
    165a:	49 f4       	brne	.+18     	; 0x166e <dsprintf_+0x3c6>
    165c:	eb e0       	ldi	r30, 0x0B	; 11
    165e:	f0 e0       	ldi	r31, 0x00	; 0
    1660:	ec 0f       	add	r30, r28
    1662:	fd 1f       	adc	r31, r29
    1664:	e0 0f       	add	r30, r16
    1666:	f1 1d       	adc	r31, r1
    1668:	8e e2       	ldi	r24, 0x2E	; 46
    166a:	80 83       	st	Z, r24
    166c:	0f 5f       	subi	r16, 0xFF	; 255
    166e:	eb e0       	ldi	r30, 0x0B	; 11
    1670:	f0 e0       	ldi	r31, 0x00	; 0
    1672:	ec 0f       	add	r30, r28
    1674:	fd 1f       	adc	r31, r29
    1676:	e0 0f       	add	r30, r16
    1678:	f1 1d       	adc	r31, r1
    167a:	fa 8f       	std	Y+26, r31	; 0x1a
    167c:	e9 8f       	std	Y+25, r30	; 0x19
    167e:	c7 01       	movw	r24, r14
    1680:	b6 01       	movw	r22, r12
    1682:	a5 01       	movw	r20, r10
    1684:	94 01       	movw	r18, r8
    1686:	0e 94 b6 0f 	call	0x1f6c	; 0x1f6c <__udivmodsi4>
    168a:	20 5d       	subi	r18, 0xD0	; 208
    168c:	e9 8d       	ldd	r30, Y+25	; 0x19
    168e:	fa 8d       	ldd	r31, Y+26	; 0x1a
    1690:	20 83       	st	Z, r18
    1692:	0f 5f       	subi	r16, 0xFF	; 255
    1694:	c5 01       	movw	r24, r10
    1696:	b4 01       	movw	r22, r8
    1698:	2a e0       	ldi	r18, 0x0A	; 10
    169a:	30 e0       	ldi	r19, 0x00	; 0
    169c:	40 e0       	ldi	r20, 0x00	; 0
    169e:	50 e0       	ldi	r21, 0x00	; 0
    16a0:	0e 94 b6 0f 	call	0x1f6c	; 0x1f6c <__udivmodsi4>
    16a4:	42 2e       	mov	r4, r18
    16a6:	3d 8f       	std	Y+29, r19	; 0x1d
    16a8:	4e 8f       	std	Y+30, r20	; 0x1e
    16aa:	5f 8f       	std	Y+31, r21	; 0x1f
    16ac:	f1 e0       	ldi	r31, 0x01	; 1
    16ae:	3f 16       	cp	r3, r31
    16b0:	29 f4       	brne	.+10     	; 0x16bc <dsprintf_+0x414>
    16b2:	09 83       	std	Y+1, r16	; 0x01
    16b4:	be 01       	movw	r22, r28
    16b6:	65 5f       	subi	r22, 0xF5	; 245
    16b8:	7f 4f       	sbci	r23, 0xFF	; 255
    16ba:	17 c0       	rjmp	.+46     	; 0x16ea <dsprintf_+0x442>
    16bc:	c7 01       	movw	r24, r14
    16be:	b6 01       	movw	r22, r12
    16c0:	a5 01       	movw	r20, r10
    16c2:	94 01       	movw	r18, r8
    16c4:	0e 94 b6 0f 	call	0x1f6c	; 0x1f6c <__udivmodsi4>
    16c8:	ac 01       	movw	r20, r24
    16ca:	cb 01       	movw	r24, r22
    16cc:	da 01       	movw	r26, r20
    16ce:	6c 01       	movw	r12, r24
    16d0:	7d 01       	movw	r14, r26
    16d2:	3a 94       	dec	r3
    16d4:	24 2d       	mov	r18, r4
    16d6:	3d 8d       	ldd	r19, Y+29	; 0x1d
    16d8:	4e 8d       	ldd	r20, Y+30	; 0x1e
    16da:	5f 8d       	ldd	r21, Y+31	; 0x1f
    16dc:	c9 01       	movw	r24, r18
    16de:	da 01       	movw	r26, r20
    16e0:	4c 01       	movw	r8, r24
    16e2:	5d 01       	movw	r10, r26
    16e4:	b7 cf       	rjmp	.-146    	; 0x1654 <dsprintf_+0x3ac>
    16e6:	b9 01       	movw	r22, r18
    16e8:	09 2f       	mov	r16, r25
    16ea:	fb 01       	movw	r30, r22
    16ec:	80 81       	ld	r24, Z
    16ee:	80 33       	cpi	r24, 0x30	; 48
    16f0:	59 f4       	brne	.+22     	; 0x1708 <dsprintf_+0x460>
    16f2:	02 30       	cpi	r16, 0x02	; 2
    16f4:	48 f0       	brcs	.+18     	; 0x1708 <dsprintf_+0x460>
    16f6:	9b 01       	movw	r18, r22
    16f8:	2f 5f       	subi	r18, 0xFF	; 255
    16fa:	3f 4f       	sbci	r19, 0xFF	; 255
    16fc:	90 2f       	mov	r25, r16
    16fe:	91 50       	subi	r25, 0x01	; 1
    1700:	fb 01       	movw	r30, r22
    1702:	81 81       	ldd	r24, Z+1	; 0x01
    1704:	8e 32       	cpi	r24, 0x2E	; 46
    1706:	79 f7       	brne	.-34     	; 0x16e6 <dsprintf_+0x43e>
    1708:	09 83       	std	Y+1, r16	; 0x01
    170a:	9c ce       	rjmp	.-712    	; 0x1444 <dsprintf_+0x19c>
    170c:	ec 81       	ldd	r30, Y+4	; 0x04
    170e:	fd 81       	ldd	r31, Y+5	; 0x05
    1710:	80 83       	st	Z, r24
    1712:	8c 81       	ldd	r24, Y+4	; 0x04
    1714:	9d 81       	ldd	r25, Y+5	; 0x05
    1716:	01 96       	adiw	r24, 0x01	; 1
    1718:	9d 83       	std	Y+5, r25	; 0x05
    171a:	8c 83       	std	Y+4, r24	; 0x04
    171c:	a8 85       	ldd	r26, Y+8	; 0x08
    171e:	b9 85       	ldd	r27, Y+9	; 0x09
    1720:	fd 01       	movw	r30, r26
    1722:	31 96       	adiw	r30, 0x01	; 1
    1724:	f9 87       	std	Y+9, r31	; 0x09
    1726:	e8 87       	std	Y+8, r30	; 0x08
    1728:	8a 85       	ldd	r24, Y+10	; 0x0a
    172a:	88 23       	and	r24, r24
    172c:	11 f0       	breq	.+4      	; 0x1732 <dsprintf_+0x48a>
    172e:	84 91       	lpm	r24, Z+
    1730:	02 c0       	rjmp	.+4      	; 0x1736 <dsprintf_+0x48e>
    1732:	11 96       	adiw	r26, 0x01	; 1
    1734:	8c 91       	ld	r24, X
    1736:	8f 83       	std	Y+7, r24	; 0x07
    1738:	8f 81       	ldd	r24, Y+7	; 0x07
    173a:	88 23       	and	r24, r24
    173c:	09 f0       	breq	.+2      	; 0x1740 <dsprintf_+0x498>
    173e:	de cd       	rjmp	.-1092   	; 0x12fc <dsprintf_+0x54>
    1740:	ec 81       	ldd	r30, Y+4	; 0x04
    1742:	fd 81       	ldd	r31, Y+5	; 0x05
    1744:	10 82       	st	Z, r1
    1746:	6f 96       	adiw	r28, 0x1f	; 31
    1748:	0f b6       	in	r0, 0x3f	; 63
    174a:	f8 94       	cli
    174c:	de bf       	out	0x3e, r29	; 62
    174e:	0f be       	out	0x3f, r0	; 63
    1750:	cd bf       	out	0x3d, r28	; 61
    1752:	cf 91       	pop	r28
    1754:	df 91       	pop	r29
    1756:	1f 91       	pop	r17
    1758:	0f 91       	pop	r16
    175a:	ff 90       	pop	r15
    175c:	ef 90       	pop	r14
    175e:	df 90       	pop	r13
    1760:	cf 90       	pop	r12
    1762:	bf 90       	pop	r11
    1764:	af 90       	pop	r10
    1766:	9f 90       	pop	r9
    1768:	8f 90       	pop	r8
    176a:	7f 90       	pop	r7
    176c:	6f 90       	pop	r6
    176e:	5f 90       	pop	r5
    1770:	4f 90       	pop	r4
    1772:	3f 90       	pop	r3
    1774:	2f 90       	pop	r2
    1776:	08 95       	ret

00001778 <dsprintf_P>:
    1778:	df 93       	push	r29
    177a:	cf 93       	push	r28
    177c:	cd b7       	in	r28, 0x3d	; 61
    177e:	de b7       	in	r29, 0x3e	; 62
    1780:	fe 01       	movw	r30, r28
    1782:	39 96       	adiw	r30, 0x09	; 9
    1784:	81 e0       	ldi	r24, 0x01	; 1
    1786:	6d 81       	ldd	r22, Y+5	; 0x05
    1788:	7e 81       	ldd	r23, Y+6	; 0x06
    178a:	4f 81       	ldd	r20, Y+7	; 0x07
    178c:	58 85       	ldd	r21, Y+8	; 0x08
    178e:	9f 01       	movw	r18, r30
    1790:	0e 94 54 09 	call	0x12a8	; 0x12a8 <dsprintf_>
    1794:	cf 91       	pop	r28
    1796:	df 91       	pop	r29
    1798:	08 95       	ret

0000179a <dsprintf>:
    179a:	df 93       	push	r29
    179c:	cf 93       	push	r28
    179e:	cd b7       	in	r28, 0x3d	; 61
    17a0:	de b7       	in	r29, 0x3e	; 62
    17a2:	fe 01       	movw	r30, r28
    17a4:	39 96       	adiw	r30, 0x09	; 9
    17a6:	80 e0       	ldi	r24, 0x00	; 0
    17a8:	6d 81       	ldd	r22, Y+5	; 0x05
    17aa:	7e 81       	ldd	r23, Y+6	; 0x06
    17ac:	4f 81       	ldd	r20, Y+7	; 0x07
    17ae:	58 85       	ldd	r21, Y+8	; 0x08
    17b0:	9f 01       	movw	r18, r30
    17b2:	0e 94 54 09 	call	0x12a8	; 0x12a8 <dsprintf_>
    17b6:	cf 91       	pop	r28
    17b8:	df 91       	pop	r29
    17ba:	08 95       	ret

000017bc <crc8>:
    17bc:	dc 01       	movw	r26, r24
    17be:	20 e0       	ldi	r18, 0x00	; 0
    17c0:	40 e0       	ldi	r20, 0x00	; 0
    17c2:	50 e0       	ldi	r21, 0x00	; 0
    17c4:	98 e1       	ldi	r25, 0x18	; 24
    17c6:	15 c0       	rjmp	.+42     	; 0x17f2 <crc8+0x36>
    17c8:	fd 01       	movw	r30, r26
    17ca:	e4 0f       	add	r30, r20
    17cc:	f5 1f       	adc	r31, r21
    17ce:	e0 81       	ld	r30, Z
    17d0:	38 e0       	ldi	r19, 0x08	; 8
    17d2:	8e 2f       	mov	r24, r30
    17d4:	82 27       	eor	r24, r18
    17d6:	f8 2f       	mov	r31, r24
    17d8:	f1 70       	andi	r31, 0x01	; 1
    17da:	80 fd       	sbrc	r24, 0
    17dc:	29 27       	eor	r18, r25
    17de:	26 95       	lsr	r18
    17e0:	f1 30       	cpi	r31, 0x01	; 1
    17e2:	09 f4       	brne	.+2      	; 0x17e6 <crc8+0x2a>
    17e4:	20 68       	ori	r18, 0x80	; 128
    17e6:	31 50       	subi	r19, 0x01	; 1
    17e8:	11 f0       	breq	.+4      	; 0x17ee <crc8+0x32>
    17ea:	e6 95       	lsr	r30
    17ec:	f2 cf       	rjmp	.-28     	; 0x17d2 <crc8+0x16>
    17ee:	4f 5f       	subi	r20, 0xFF	; 255
    17f0:	5f 4f       	sbci	r21, 0xFF	; 255
    17f2:	46 17       	cp	r20, r22
    17f4:	57 07       	cpc	r21, r23
    17f6:	41 f7       	brne	.-48     	; 0x17c8 <crc8+0xc>
    17f8:	82 2f       	mov	r24, r18
    17fa:	08 95       	ret

000017fc <delayloop32>:
    17fc:	dc 01       	movw	r26, r24
    17fe:	cb 01       	movw	r24, r22
    1800:	81 15       	cp	r24, r1
    1802:	91 05       	cpc	r25, r1
    1804:	a1 05       	cpc	r26, r1
    1806:	b1 05       	cpc	r27, r1
    1808:	29 f0       	breq	.+10     	; 0x1814 <L_Exit_6>

0000180a <L_LOOP_6>:
    180a:	81 50       	subi	r24, 0x01	; 1
    180c:	90 40       	sbci	r25, 0x00	; 0
    180e:	a0 40       	sbci	r26, 0x00	; 0
    1810:	b0 40       	sbci	r27, 0x00	; 0
    1812:	d9 f7       	brne	.-10     	; 0x180a <L_LOOP_6>

00001814 <L_Exit_6>:
    1814:	08 95       	ret

00001816 <DS18X20_meas_to_cel>:
    1816:	ff 92       	push	r15
    1818:	0f 93       	push	r16
    181a:	1f 93       	push	r17
    181c:	cf 93       	push	r28
    181e:	df 93       	push	r29
    1820:	f8 2e       	mov	r15, r24
    1822:	fb 01       	movw	r30, r22
    1824:	da 01       	movw	r26, r20
    1826:	e9 01       	movw	r28, r18
    1828:	80 81       	ld	r24, Z
    182a:	48 2f       	mov	r20, r24
    182c:	50 e0       	ldi	r21, 0x00	; 0
    182e:	91 81       	ldd	r25, Z+1	; 0x01
    1830:	80 e0       	ldi	r24, 0x00	; 0
    1832:	48 2b       	or	r20, r24
    1834:	59 2b       	or	r21, r25
    1836:	80 e1       	ldi	r24, 0x10	; 16
    1838:	f8 16       	cp	r15, r24
    183a:	71 f4       	brne	.+28     	; 0x1858 <DS18X20_meas_to_cel+0x42>
    183c:	ca 01       	movw	r24, r20
    183e:	8e 7f       	andi	r24, 0xFE	; 254
    1840:	33 e0       	ldi	r19, 0x03	; 3
    1842:	88 0f       	add	r24, r24
    1844:	99 1f       	adc	r25, r25
    1846:	3a 95       	dec	r19
    1848:	e1 f7       	brne	.-8      	; 0x1842 <DS18X20_meas_to_cel+0x2c>
    184a:	26 81       	ldd	r18, Z+6	; 0x06
    184c:	4c e0       	ldi	r20, 0x0C	; 12
    184e:	50 e0       	ldi	r21, 0x00	; 0
    1850:	42 1b       	sub	r20, r18
    1852:	51 09       	sbc	r21, r1
    1854:	48 0f       	add	r20, r24
    1856:	59 1f       	adc	r21, r25
    1858:	57 ff       	sbrs	r21, 7
    185a:	06 c0       	rjmp	.+12     	; 0x1868 <DS18X20_meas_to_cel+0x52>
    185c:	81 e0       	ldi	r24, 0x01	; 1
    185e:	8c 93       	st	X, r24
    1860:	50 95       	com	r21
    1862:	41 95       	neg	r20
    1864:	5f 4f       	sbci	r21, 0xFF	; 255
    1866:	01 c0       	rjmp	.+2      	; 0x186a <DS18X20_meas_to_cel+0x54>
    1868:	1c 92       	st	X, r1
    186a:	88 e2       	ldi	r24, 0x28	; 40
    186c:	f8 16       	cp	r15, r24
    186e:	91 f4       	brne	.+36     	; 0x1894 <DS18X20_meas_to_cel+0x7e>
    1870:	84 81       	ldd	r24, Z+4	; 0x04
    1872:	68 2f       	mov	r22, r24
    1874:	70 e0       	ldi	r23, 0x00	; 0
    1876:	cb 01       	movw	r24, r22
    1878:	80 76       	andi	r24, 0x60	; 96
    187a:	90 70       	andi	r25, 0x00	; 0
    187c:	80 36       	cpi	r24, 0x60	; 96
    187e:	91 05       	cpc	r25, r1
    1880:	49 f0       	breq	.+18     	; 0x1894 <DS18X20_meas_to_cel+0x7e>
    1882:	66 ff       	sbrs	r22, 6
    1884:	02 c0       	rjmp	.+4      	; 0x188a <DS18X20_meas_to_cel+0x74>
    1886:	4e 7f       	andi	r20, 0xFE	; 254
    1888:	05 c0       	rjmp	.+10     	; 0x1894 <DS18X20_meas_to_cel+0x7e>
    188a:	65 ff       	sbrs	r22, 5
    188c:	02 c0       	rjmp	.+4      	; 0x1892 <DS18X20_meas_to_cel+0x7c>
    188e:	4c 7f       	andi	r20, 0xFC	; 252
    1890:	01 c0       	rjmp	.+2      	; 0x1894 <DS18X20_meas_to_cel+0x7e>
    1892:	48 7f       	andi	r20, 0xF8	; 248
    1894:	ca 01       	movw	r24, r20
    1896:	24 e0       	ldi	r18, 0x04	; 4
    1898:	96 95       	lsr	r25
    189a:	87 95       	ror	r24
    189c:	2a 95       	dec	r18
    189e:	e1 f7       	brne	.-8      	; 0x1898 <DS18X20_meas_to_cel+0x82>
    18a0:	88 83       	st	Y, r24
    18a2:	84 2f       	mov	r24, r20
    18a4:	8f 70       	andi	r24, 0x0F	; 15
    18a6:	f8 01       	movw	r30, r16
    18a8:	80 83       	st	Z, r24
    18aa:	80 e0       	ldi	r24, 0x00	; 0
    18ac:	df 91       	pop	r29
    18ae:	cf 91       	pop	r28
    18b0:	1f 91       	pop	r17
    18b2:	0f 91       	pop	r16
    18b4:	ff 90       	pop	r15
    18b6:	08 95       	ret

000018b8 <DS18X20_temp_to_decicel>:
    18b8:	0f 93       	push	r16
    18ba:	1f 93       	push	r17
    18bc:	df 93       	push	r29
    18be:	cf 93       	push	r28
    18c0:	cd b7       	in	r28, 0x3d	; 61
    18c2:	de b7       	in	r29, 0x3e	; 62
    18c4:	28 97       	sbiw	r28, 0x08	; 8
    18c6:	0f b6       	in	r0, 0x3f	; 63
    18c8:	f8 94       	cli
    18ca:	de bf       	out	0x3e, r29	; 62
    18cc:	0f be       	out	0x3f, r0	; 63
    18ce:	cd bf       	out	0x3d, r28	; 61
    18d0:	08 2f       	mov	r16, r24
    18d2:	16 2f       	mov	r17, r22
    18d4:	de 01       	movw	r26, r28
    18d6:	11 96       	adiw	r26, 0x01	; 1
    18d8:	e4 e1       	ldi	r30, 0x14	; 20
    18da:	f1 e0       	ldi	r31, 0x01	; 1
    18dc:	88 e0       	ldi	r24, 0x08	; 8
    18de:	01 90       	ld	r0, Z+
    18e0:	0d 92       	st	X+, r0
    18e2:	81 50       	subi	r24, 0x01	; 1
    18e4:	e1 f7       	brne	.-8      	; 0x18de <DS18X20_temp_to_decicel+0x26>
    18e6:	24 2f       	mov	r18, r20
    18e8:	30 e0       	ldi	r19, 0x00	; 0
    18ea:	81 e7       	ldi	r24, 0x71	; 113
    18ec:	92 e0       	ldi	r25, 0x02	; 2
    18ee:	bc 01       	movw	r22, r24
    18f0:	26 9f       	mul	r18, r22
    18f2:	c0 01       	movw	r24, r0
    18f4:	27 9f       	mul	r18, r23
    18f6:	90 0d       	add	r25, r0
    18f8:	36 9f       	mul	r19, r22
    18fa:	90 0d       	add	r25, r0
    18fc:	11 24       	eor	r1, r1
    18fe:	68 ee       	ldi	r22, 0xE8	; 232
    1900:	73 e0       	ldi	r23, 0x03	; 3
    1902:	0e 94 a3 0f 	call	0x1f46	; 0x1f46 <__divmodhi4>
    1906:	cb 01       	movw	r24, r22
    1908:	2a e0       	ldi	r18, 0x0A	; 10
    190a:	12 9f       	mul	r17, r18
    190c:	b0 01       	movw	r22, r0
    190e:	11 24       	eor	r1, r1
    1910:	68 0f       	add	r22, r24
    1912:	79 1f       	adc	r23, r25
    1914:	00 23       	and	r16, r16
    1916:	79 f4       	brne	.+30     	; 0x1936 <DS18X20_temp_to_decicel+0x7e>
    1918:	fe 01       	movw	r30, r28
    191a:	31 96       	adiw	r30, 0x01	; 1
    191c:	9e 01       	movw	r18, r28
    191e:	27 5f       	subi	r18, 0xF7	; 247
    1920:	3f 4f       	sbci	r19, 0xFF	; 255
    1922:	80 81       	ld	r24, Z
    1924:	48 17       	cp	r20, r24
    1926:	19 f4       	brne	.+6      	; 0x192e <DS18X20_temp_to_decicel+0x76>
    1928:	6f 5f       	subi	r22, 0xFF	; 255
    192a:	7f 4f       	sbci	r23, 0xFF	; 255
    192c:	04 c0       	rjmp	.+8      	; 0x1936 <DS18X20_temp_to_decicel+0x7e>
    192e:	31 96       	adiw	r30, 0x01	; 1
    1930:	e2 17       	cp	r30, r18
    1932:	f3 07       	cpc	r31, r19
    1934:	b1 f7       	brne	.-20     	; 0x1922 <DS18X20_temp_to_decicel+0x6a>
    1936:	cb 01       	movw	r24, r22
    1938:	28 96       	adiw	r28, 0x08	; 8
    193a:	0f b6       	in	r0, 0x3f	; 63
    193c:	f8 94       	cli
    193e:	de bf       	out	0x3e, r29	; 62
    1940:	0f be       	out	0x3f, r0	; 63
    1942:	cd bf       	out	0x3d, r28	; 61
    1944:	cf 91       	pop	r28
    1946:	df 91       	pop	r29
    1948:	1f 91       	pop	r17
    194a:	0f 91       	pop	r16
    194c:	08 95       	ret

0000194e <DS18X20_temp_cmp>:
    194e:	88 23       	and	r24, r24
    1950:	19 f0       	breq	.+6      	; 0x1958 <DS18X20_temp_cmp+0xa>
    1952:	70 95       	com	r23
    1954:	61 95       	neg	r22
    1956:	7f 4f       	sbci	r23, 0xFF	; 255
    1958:	44 23       	and	r20, r20
    195a:	19 f0       	breq	.+6      	; 0x1962 <DS18X20_temp_cmp+0x14>
    195c:	30 95       	com	r19
    195e:	21 95       	neg	r18
    1960:	3f 4f       	sbci	r19, 0xFF	; 255
    1962:	62 17       	cp	r22, r18
    1964:	73 07       	cpc	r23, r19
    1966:	14 f4       	brge	.+4      	; 0x196c <DS18X20_temp_cmp+0x1e>
    1968:	8f ef       	ldi	r24, 0xFF	; 255
    196a:	08 95       	ret
    196c:	80 e0       	ldi	r24, 0x00	; 0
    196e:	26 17       	cp	r18, r22
    1970:	37 07       	cpc	r19, r23
    1972:	0c f4       	brge	.+2      	; 0x1976 <DS18X20_temp_cmp+0x28>
    1974:	81 e0       	ldi	r24, 0x01	; 1
    1976:	08 95       	ret

00001978 <DS18X20_recall_E2>:
    1978:	cf 93       	push	r28
    197a:	df 93       	push	r29
    197c:	ec 01       	movw	r28, r24
    197e:	0e 94 71 0e 	call	0x1ce2	; 0x1ce2 <ow_reset>
    1982:	0e 94 40 0e 	call	0x1c80	; 0x1c80 <ow_input_pin_state>
    1986:	88 23       	and	r24, r24
    1988:	11 f4       	brne	.+4      	; 0x198e <DS18X20_recall_E2+0x16>
    198a:	81 e0       	ldi	r24, 0x01	; 1
    198c:	0b c0       	rjmp	.+22     	; 0x19a4 <DS18X20_recall_E2+0x2c>
    198e:	88 eb       	ldi	r24, 0xB8	; 184
    1990:	be 01       	movw	r22, r28
    1992:	0e 94 70 0f 	call	0x1ee0	; 0x1ee0 <ow_command>
    1996:	64 e2       	ldi	r22, 0x24	; 36
    1998:	78 e6       	ldi	r23, 0x68	; 104
    199a:	80 e0       	ldi	r24, 0x00	; 0
    199c:	90 e0       	ldi	r25, 0x00	; 0
    199e:	0e 94 fe 0b 	call	0x17fc	; 0x17fc <delayloop32>
    19a2:	80 e0       	ldi	r24, 0x00	; 0
    19a4:	df 91       	pop	r29
    19a6:	cf 91       	pop	r28
    19a8:	08 95       	ret

000019aa <DS18X20_start_meas>:
    19aa:	1f 93       	push	r17
    19ac:	cf 93       	push	r28
    19ae:	df 93       	push	r29
    19b0:	18 2f       	mov	r17, r24
    19b2:	eb 01       	movw	r28, r22
    19b4:	0e 94 71 0e 	call	0x1ce2	; 0x1ce2 <ow_reset>
    19b8:	0e 94 40 0e 	call	0x1c80	; 0x1c80 <ow_input_pin_state>
    19bc:	88 23       	and	r24, r24
    19be:	11 f4       	brne	.+4      	; 0x19c4 <DS18X20_start_meas+0x1a>
    19c0:	82 e0       	ldi	r24, 0x02	; 2
    19c2:	09 c0       	rjmp	.+18     	; 0x19d6 <DS18X20_start_meas+0x2c>
    19c4:	84 e4       	ldi	r24, 0x44	; 68
    19c6:	be 01       	movw	r22, r28
    19c8:	0e 94 70 0f 	call	0x1ee0	; 0x1ee0 <ow_command>
    19cc:	11 30       	cpi	r17, 0x01	; 1
    19ce:	11 f0       	breq	.+4      	; 0x19d4 <DS18X20_start_meas+0x2a>
    19d0:	0e 94 49 0e 	call	0x1c92	; 0x1c92 <ow_parasite_enable>
    19d4:	80 e0       	ldi	r24, 0x00	; 0
    19d6:	df 91       	pop	r29
    19d8:	cf 91       	pop	r28
    19da:	1f 91       	pop	r17
    19dc:	08 95       	ret

000019de <DS18X20_copy_scratchpad>:
    19de:	1f 93       	push	r17
    19e0:	cf 93       	push	r28
    19e2:	df 93       	push	r29
    19e4:	18 2f       	mov	r17, r24
    19e6:	eb 01       	movw	r28, r22
    19e8:	0e 94 71 0e 	call	0x1ce2	; 0x1ce2 <ow_reset>
    19ec:	0e 94 40 0e 	call	0x1c80	; 0x1c80 <ow_input_pin_state>
    19f0:	88 23       	and	r24, r24
    19f2:	11 f4       	brne	.+4      	; 0x19f8 <DS18X20_copy_scratchpad+0x1a>
    19f4:	82 e0       	ldi	r24, 0x02	; 2
    19f6:	13 c0       	rjmp	.+38     	; 0x1a1e <DS18X20_copy_scratchpad+0x40>
    19f8:	88 e4       	ldi	r24, 0x48	; 72
    19fa:	be 01       	movw	r22, r28
    19fc:	0e 94 70 0f 	call	0x1ee0	; 0x1ee0 <ow_command>
    1a00:	11 30       	cpi	r17, 0x01	; 1
    1a02:	11 f0       	breq	.+4      	; 0x1a08 <DS18X20_copy_scratchpad+0x2a>
    1a04:	0e 94 49 0e 	call	0x1c92	; 0x1c92 <ow_parasite_enable>
    1a08:	64 e2       	ldi	r22, 0x24	; 36
    1a0a:	78 e6       	ldi	r23, 0x68	; 104
    1a0c:	80 e0       	ldi	r24, 0x00	; 0
    1a0e:	90 e0       	ldi	r25, 0x00	; 0
    1a10:	0e 94 fe 0b 	call	0x17fc	; 0x17fc <delayloop32>
    1a14:	11 30       	cpi	r17, 0x01	; 1
    1a16:	11 f0       	breq	.+4      	; 0x1a1c <DS18X20_copy_scratchpad+0x3e>
    1a18:	0e 94 5c 0e 	call	0x1cb8	; 0x1cb8 <ow_parasite_disable>
    1a1c:	80 e0       	ldi	r24, 0x00	; 0
    1a1e:	df 91       	pop	r29
    1a20:	cf 91       	pop	r28
    1a22:	1f 91       	pop	r17
    1a24:	08 95       	ret

00001a26 <DS18X20_read_scratchpad>:
    1a26:	0f 93       	push	r16
    1a28:	1f 93       	push	r17
    1a2a:	cf 93       	push	r28
    1a2c:	df 93       	push	r29
    1a2e:	ec 01       	movw	r28, r24
    1a30:	8b 01       	movw	r16, r22
    1a32:	0e 94 71 0e 	call	0x1ce2	; 0x1ce2 <ow_reset>
    1a36:	0e 94 40 0e 	call	0x1c80	; 0x1c80 <ow_input_pin_state>
    1a3a:	88 23       	and	r24, r24
    1a3c:	11 f4       	brne	.+4      	; 0x1a42 <DS18X20_read_scratchpad+0x1c>
    1a3e:	81 e0       	ldi	r24, 0x01	; 1
    1a40:	11 c0       	rjmp	.+34     	; 0x1a64 <DS18X20_read_scratchpad+0x3e>
    1a42:	8e eb       	ldi	r24, 0xBE	; 190
    1a44:	be 01       	movw	r22, r28
    1a46:	0e 94 70 0f 	call	0x1ee0	; 0x1ee0 <ow_command>
    1a4a:	c0 e0       	ldi	r28, 0x00	; 0
    1a4c:	d0 e0       	ldi	r29, 0x00	; 0
    1a4e:	0e 94 20 0f 	call	0x1e40	; 0x1e40 <ow_byte_rd>
    1a52:	f8 01       	movw	r30, r16
    1a54:	ec 0f       	add	r30, r28
    1a56:	fd 1f       	adc	r31, r29
    1a58:	80 83       	st	Z, r24
    1a5a:	21 96       	adiw	r28, 0x01	; 1
    1a5c:	c9 30       	cpi	r28, 0x09	; 9
    1a5e:	d1 05       	cpc	r29, r1
    1a60:	b1 f7       	brne	.-20     	; 0x1a4e <DS18X20_read_scratchpad+0x28>
    1a62:	80 e0       	ldi	r24, 0x00	; 0
    1a64:	df 91       	pop	r29
    1a66:	cf 91       	pop	r28
    1a68:	1f 91       	pop	r17
    1a6a:	0f 91       	pop	r16
    1a6c:	08 95       	ret

00001a6e <DS18X20_write_scratchpad>:
    1a6e:	ff 92       	push	r15
    1a70:	0f 93       	push	r16
    1a72:	1f 93       	push	r17
    1a74:	cf 93       	push	r28
    1a76:	df 93       	push	r29
    1a78:	ec 01       	movw	r28, r24
    1a7a:	16 2f       	mov	r17, r22
    1a7c:	04 2f       	mov	r16, r20
    1a7e:	f2 2e       	mov	r15, r18
    1a80:	0e 94 71 0e 	call	0x1ce2	; 0x1ce2 <ow_reset>
    1a84:	0e 94 40 0e 	call	0x1c80	; 0x1c80 <ow_input_pin_state>
    1a88:	88 23       	and	r24, r24
    1a8a:	11 f4       	brne	.+4      	; 0x1a90 <DS18X20_write_scratchpad+0x22>
    1a8c:	81 e0       	ldi	r24, 0x01	; 1
    1a8e:	11 c0       	rjmp	.+34     	; 0x1ab2 <DS18X20_write_scratchpad+0x44>
    1a90:	8e e4       	ldi	r24, 0x4E	; 78
    1a92:	be 01       	movw	r22, r28
    1a94:	0e 94 70 0f 	call	0x1ee0	; 0x1ee0 <ow_command>
    1a98:	81 2f       	mov	r24, r17
    1a9a:	0e 94 0f 0f 	call	0x1e1e	; 0x1e1e <ow_byte_wr>
    1a9e:	80 2f       	mov	r24, r16
    1aa0:	0e 94 0f 0f 	call	0x1e1e	; 0x1e1e <ow_byte_wr>
    1aa4:	88 81       	ld	r24, Y
    1aa6:	88 32       	cpi	r24, 0x28	; 40
    1aa8:	19 f4       	brne	.+6      	; 0x1ab0 <DS18X20_write_scratchpad+0x42>
    1aaa:	8f 2d       	mov	r24, r15
    1aac:	0e 94 0f 0f 	call	0x1e1e	; 0x1e1e <ow_byte_wr>
    1ab0:	80 e0       	ldi	r24, 0x00	; 0
    1ab2:	df 91       	pop	r29
    1ab4:	cf 91       	pop	r28
    1ab6:	1f 91       	pop	r17
    1ab8:	0f 91       	pop	r16
    1aba:	ff 90       	pop	r15
    1abc:	08 95       	ret

00001abe <DS18X20_read_meas_single>:
    1abe:	7f 92       	push	r7
    1ac0:	8f 92       	push	r8
    1ac2:	9f 92       	push	r9
    1ac4:	af 92       	push	r10
    1ac6:	bf 92       	push	r11
    1ac8:	cf 92       	push	r12
    1aca:	df 92       	push	r13
    1acc:	ef 92       	push	r14
    1ace:	ff 92       	push	r15
    1ad0:	0f 93       	push	r16
    1ad2:	1f 93       	push	r17
    1ad4:	df 93       	push	r29
    1ad6:	cf 93       	push	r28
    1ad8:	cd b7       	in	r28, 0x3d	; 61
    1ada:	de b7       	in	r29, 0x3e	; 62
    1adc:	29 97       	sbiw	r28, 0x09	; 9
    1ade:	0f b6       	in	r0, 0x3f	; 63
    1ae0:	f8 94       	cli
    1ae2:	de bf       	out	0x3e, r29	; 62
    1ae4:	0f be       	out	0x3f, r0	; 63
    1ae6:	cd bf       	out	0x3d, r28	; 61
    1ae8:	78 2e       	mov	r7, r24
    1aea:	6b 01       	movw	r12, r22
    1aec:	5a 01       	movw	r10, r20
    1aee:	49 01       	movw	r8, r18
    1af0:	8e eb       	ldi	r24, 0xBE	; 190
    1af2:	60 e0       	ldi	r22, 0x00	; 0
    1af4:	70 e0       	ldi	r23, 0x00	; 0
    1af6:	0e 94 70 0f 	call	0x1ee0	; 0x1ee0 <ow_command>
    1afa:	8e 01       	movw	r16, r28
    1afc:	0f 5f       	subi	r16, 0xFF	; 255
    1afe:	1f 4f       	sbci	r17, 0xFF	; 255
    1b00:	4a e0       	ldi	r20, 0x0A	; 10
    1b02:	e4 2e       	mov	r14, r20
    1b04:	f1 2c       	mov	r15, r1
    1b06:	ec 0e       	add	r14, r28
    1b08:	fd 1e       	adc	r15, r29
    1b0a:	0e 94 20 0f 	call	0x1e40	; 0x1e40 <ow_byte_rd>
    1b0e:	f8 01       	movw	r30, r16
    1b10:	81 93       	st	Z+, r24
    1b12:	8f 01       	movw	r16, r30
    1b14:	ee 15       	cp	r30, r14
    1b16:	ff 05       	cpc	r31, r15
    1b18:	c1 f7       	brne	.-16     	; 0x1b0a <DS18X20_read_meas_single+0x4c>
    1b1a:	7e 01       	movw	r14, r28
    1b1c:	08 94       	sec
    1b1e:	e1 1c       	adc	r14, r1
    1b20:	f1 1c       	adc	r15, r1
    1b22:	c7 01       	movw	r24, r14
    1b24:	69 e0       	ldi	r22, 0x09	; 9
    1b26:	70 e0       	ldi	r23, 0x00	; 0
    1b28:	0e 94 de 0b 	call	0x17bc	; 0x17bc <crc8>
    1b2c:	88 23       	and	r24, r24
    1b2e:	11 f0       	breq	.+4      	; 0x1b34 <DS18X20_read_meas_single+0x76>
    1b30:	83 e0       	ldi	r24, 0x03	; 3
    1b32:	08 c0       	rjmp	.+16     	; 0x1b44 <DS18X20_read_meas_single+0x86>
    1b34:	87 2d       	mov	r24, r7
    1b36:	b7 01       	movw	r22, r14
    1b38:	a6 01       	movw	r20, r12
    1b3a:	95 01       	movw	r18, r10
    1b3c:	84 01       	movw	r16, r8
    1b3e:	0e 94 0b 0c 	call	0x1816	; 0x1816 <DS18X20_meas_to_cel>
    1b42:	80 e0       	ldi	r24, 0x00	; 0
    1b44:	29 96       	adiw	r28, 0x09	; 9
    1b46:	0f b6       	in	r0, 0x3f	; 63
    1b48:	f8 94       	cli
    1b4a:	de bf       	out	0x3e, r29	; 62
    1b4c:	0f be       	out	0x3f, r0	; 63
    1b4e:	cd bf       	out	0x3d, r28	; 61
    1b50:	cf 91       	pop	r28
    1b52:	df 91       	pop	r29
    1b54:	1f 91       	pop	r17
    1b56:	0f 91       	pop	r16
    1b58:	ff 90       	pop	r15
    1b5a:	ef 90       	pop	r14
    1b5c:	df 90       	pop	r13
    1b5e:	cf 90       	pop	r12
    1b60:	bf 90       	pop	r11
    1b62:	af 90       	pop	r10
    1b64:	9f 90       	pop	r9
    1b66:	8f 90       	pop	r8
    1b68:	7f 90       	pop	r7
    1b6a:	08 95       	ret

00001b6c <DS18X20_read_meas>:
    1b6c:	6f 92       	push	r6
    1b6e:	7f 92       	push	r7
    1b70:	8f 92       	push	r8
    1b72:	9f 92       	push	r9
    1b74:	af 92       	push	r10
    1b76:	bf 92       	push	r11
    1b78:	cf 92       	push	r12
    1b7a:	df 92       	push	r13
    1b7c:	ef 92       	push	r14
    1b7e:	ff 92       	push	r15
    1b80:	0f 93       	push	r16
    1b82:	1f 93       	push	r17
    1b84:	df 93       	push	r29
    1b86:	cf 93       	push	r28
    1b88:	cd b7       	in	r28, 0x3d	; 61
    1b8a:	de b7       	in	r29, 0x3e	; 62
    1b8c:	29 97       	sbiw	r28, 0x09	; 9
    1b8e:	0f b6       	in	r0, 0x3f	; 63
    1b90:	f8 94       	cli
    1b92:	de bf       	out	0x3e, r29	; 62
    1b94:	0f be       	out	0x3f, r0	; 63
    1b96:	cd bf       	out	0x3d, r28	; 61
    1b98:	6c 01       	movw	r12, r24
    1b9a:	5b 01       	movw	r10, r22
    1b9c:	4a 01       	movw	r8, r20
    1b9e:	39 01       	movw	r6, r18
    1ba0:	0e 94 71 0e 	call	0x1ce2	; 0x1ce2 <ow_reset>
    1ba4:	8e eb       	ldi	r24, 0xBE	; 190
    1ba6:	b6 01       	movw	r22, r12
    1ba8:	0e 94 70 0f 	call	0x1ee0	; 0x1ee0 <ow_command>
    1bac:	8e 01       	movw	r16, r28
    1bae:	0f 5f       	subi	r16, 0xFF	; 255
    1bb0:	1f 4f       	sbci	r17, 0xFF	; 255
    1bb2:	5a e0       	ldi	r21, 0x0A	; 10
    1bb4:	e5 2e       	mov	r14, r21
    1bb6:	f1 2c       	mov	r15, r1
    1bb8:	ec 0e       	add	r14, r28
    1bba:	fd 1e       	adc	r15, r29
    1bbc:	0e 94 20 0f 	call	0x1e40	; 0x1e40 <ow_byte_rd>
    1bc0:	f8 01       	movw	r30, r16
    1bc2:	81 93       	st	Z+, r24
    1bc4:	8f 01       	movw	r16, r30
    1bc6:	ee 15       	cp	r30, r14
    1bc8:	ff 05       	cpc	r31, r15
    1bca:	c1 f7       	brne	.-16     	; 0x1bbc <DS18X20_read_meas+0x50>
    1bcc:	7e 01       	movw	r14, r28
    1bce:	08 94       	sec
    1bd0:	e1 1c       	adc	r14, r1
    1bd2:	f1 1c       	adc	r15, r1
    1bd4:	c7 01       	movw	r24, r14
    1bd6:	69 e0       	ldi	r22, 0x09	; 9
    1bd8:	70 e0       	ldi	r23, 0x00	; 0
    1bda:	0e 94 de 0b 	call	0x17bc	; 0x17bc <crc8>
    1bde:	88 23       	and	r24, r24
    1be0:	11 f0       	breq	.+4      	; 0x1be6 <DS18X20_read_meas+0x7a>
    1be2:	83 e0       	ldi	r24, 0x03	; 3
    1be4:	09 c0       	rjmp	.+18     	; 0x1bf8 <DS18X20_read_meas+0x8c>
    1be6:	f6 01       	movw	r30, r12
    1be8:	80 81       	ld	r24, Z
    1bea:	b7 01       	movw	r22, r14
    1bec:	a5 01       	movw	r20, r10
    1bee:	94 01       	movw	r18, r8
    1bf0:	83 01       	movw	r16, r6
    1bf2:	0e 94 0b 0c 	call	0x1816	; 0x1816 <DS18X20_meas_to_cel>
    1bf6:	80 e0       	ldi	r24, 0x00	; 0
    1bf8:	29 96       	adiw	r28, 0x09	; 9
    1bfa:	0f b6       	in	r0, 0x3f	; 63
    1bfc:	f8 94       	cli
    1bfe:	de bf       	out	0x3e, r29	; 62
    1c00:	0f be       	out	0x3f, r0	; 63
    1c02:	cd bf       	out	0x3d, r28	; 61
    1c04:	cf 91       	pop	r28
    1c06:	df 91       	pop	r29
    1c08:	1f 91       	pop	r17
    1c0a:	0f 91       	pop	r16
    1c0c:	ff 90       	pop	r15
    1c0e:	ef 90       	pop	r14
    1c10:	df 90       	pop	r13
    1c12:	cf 90       	pop	r12
    1c14:	bf 90       	pop	r11
    1c16:	af 90       	pop	r10
    1c18:	9f 90       	pop	r9
    1c1a:	8f 90       	pop	r8
    1c1c:	7f 90       	pop	r7
    1c1e:	6f 90       	pop	r6
    1c20:	08 95       	ret

00001c22 <DS18X20_get_power_status>:
    1c22:	0f 93       	push	r16
    1c24:	1f 93       	push	r17
    1c26:	8c 01       	movw	r16, r24
    1c28:	0e 94 71 0e 	call	0x1ce2	; 0x1ce2 <ow_reset>
    1c2c:	84 eb       	ldi	r24, 0xB4	; 180
    1c2e:	b8 01       	movw	r22, r16
    1c30:	0e 94 70 0f 	call	0x1ee0	; 0x1ee0 <ow_command>
    1c34:	81 e0       	ldi	r24, 0x01	; 1
    1c36:	0e 94 cd 0e 	call	0x1d9a	; 0x1d9a <ow_bit_io>
    1c3a:	18 2f       	mov	r17, r24
    1c3c:	0e 94 71 0e 	call	0x1ce2	; 0x1ce2 <ow_reset>
    1c40:	11 11       	cpse	r17, r1
    1c42:	11 e0       	ldi	r17, 0x01	; 1
    1c44:	81 2f       	mov	r24, r17
    1c46:	1f 91       	pop	r17
    1c48:	0f 91       	pop	r16
    1c4a:	08 95       	ret

00001c4c <DS18X20_find_sensor>:
    1c4c:	0f 93       	push	r16
    1c4e:	1f 93       	push	r17
    1c50:	cf 93       	push	r28
    1c52:	df 93       	push	r29
    1c54:	8c 01       	movw	r16, r24
    1c56:	eb 01       	movw	r28, r22
    1c58:	f8 01       	movw	r30, r16
    1c5a:	80 81       	ld	r24, Z
    1c5c:	be 01       	movw	r22, r28
    1c5e:	0e 94 24 0f 	call	0x1e48	; 0x1e48 <ow_rom_search>
    1c62:	f8 01       	movw	r30, r16
    1c64:	80 83       	st	Z, r24
    1c66:	81 50       	subi	r24, 0x01	; 1
    1c68:	8d 3f       	cpi	r24, 0xFD	; 253
    1c6a:	28 f4       	brcc	.+10     	; 0x1c76 <DS18X20_find_sensor+0x2a>
    1c6c:	88 81       	ld	r24, Y
    1c6e:	88 32       	cpi	r24, 0x28	; 40
    1c70:	11 f0       	breq	.+4      	; 0x1c76 <DS18X20_find_sensor+0x2a>
    1c72:	80 31       	cpi	r24, 0x10	; 16
    1c74:	89 f7       	brne	.-30     	; 0x1c58 <DS18X20_find_sensor+0xc>
    1c76:	df 91       	pop	r29
    1c78:	cf 91       	pop	r28
    1c7a:	1f 91       	pop	r17
    1c7c:	0f 91       	pop	r16
    1c7e:	08 95       	ret

00001c80 <ow_input_pin_state>:
    1c80:	e0 91 5b 02 	lds	r30, 0x025B
    1c84:	f0 91 5c 02 	lds	r31, 0x025C
    1c88:	80 81       	ld	r24, Z
    1c8a:	90 91 5a 02 	lds	r25, 0x025A
    1c8e:	89 23       	and	r24, r25
    1c90:	08 95       	ret

00001c92 <ow_parasite_enable>:
    1c92:	e0 91 58 02 	lds	r30, 0x0258
    1c96:	f0 91 59 02 	lds	r31, 0x0259
    1c9a:	80 81       	ld	r24, Z
    1c9c:	90 91 5a 02 	lds	r25, 0x025A
    1ca0:	89 2b       	or	r24, r25
    1ca2:	80 83       	st	Z, r24
    1ca4:	e0 91 5d 02 	lds	r30, 0x025D
    1ca8:	f0 91 5e 02 	lds	r31, 0x025E
    1cac:	80 81       	ld	r24, Z
    1cae:	90 91 5a 02 	lds	r25, 0x025A
    1cb2:	89 2b       	or	r24, r25
    1cb4:	80 83       	st	Z, r24
    1cb6:	08 95       	ret

00001cb8 <ow_parasite_disable>:
    1cb8:	e0 91 58 02 	lds	r30, 0x0258
    1cbc:	f0 91 59 02 	lds	r31, 0x0259
    1cc0:	90 81       	ld	r25, Z
    1cc2:	80 91 5a 02 	lds	r24, 0x025A
    1cc6:	80 95       	com	r24
    1cc8:	89 23       	and	r24, r25
    1cca:	80 83       	st	Z, r24
    1ccc:	e0 91 5d 02 	lds	r30, 0x025D
    1cd0:	f0 91 5e 02 	lds	r31, 0x025E
    1cd4:	90 81       	ld	r25, Z
    1cd6:	80 91 5a 02 	lds	r24, 0x025A
    1cda:	80 95       	com	r24
    1cdc:	89 23       	and	r24, r25
    1cde:	80 83       	st	Z, r24
    1ce0:	08 95       	ret

00001ce2 <ow_reset>:
    1ce2:	e0 91 58 02 	lds	r30, 0x0258
    1ce6:	f0 91 59 02 	lds	r31, 0x0259
    1cea:	90 81       	ld	r25, Z
    1cec:	80 91 5a 02 	lds	r24, 0x025A
    1cf0:	80 95       	com	r24
    1cf2:	89 23       	and	r24, r25
    1cf4:	80 83       	st	Z, r24
    1cf6:	e0 91 5d 02 	lds	r30, 0x025D
    1cfa:	f0 91 5e 02 	lds	r31, 0x025E
    1cfe:	80 81       	ld	r24, Z
    1d00:	90 91 5a 02 	lds	r25, 0x025A
    1d04:	89 2b       	or	r24, r25
    1d06:	80 83       	st	Z, r24
    1d08:	8f e8       	ldi	r24, 0x8F	; 143
    1d0a:	97 e0       	ldi	r25, 0x07	; 7
    1d0c:	81 15       	cp	r24, r1
    1d0e:	91 05       	cpc	r25, r1
    1d10:	11 f0       	breq	.+4      	; 0x1d16 <L_Exit_69>

00001d12 <L_LOOP_69>:
    1d12:	01 97       	sbiw	r24, 0x01	; 1
    1d14:	f1 f7       	brne	.-4      	; 0x1d12 <L_LOOP_69>

00001d16 <L_Exit_69>:
    1d16:	2f b7       	in	r18, 0x3f	; 63
    1d18:	f8 94       	cli
    1d1a:	e0 91 5d 02 	lds	r30, 0x025D
    1d1e:	f0 91 5e 02 	lds	r31, 0x025E
    1d22:	90 81       	ld	r25, Z
    1d24:	80 91 5a 02 	lds	r24, 0x025A
    1d28:	80 95       	com	r24
    1d2a:	89 23       	and	r24, r25
    1d2c:	80 83       	st	Z, r24
    1d2e:	89 e0       	ldi	r24, 0x09	; 9
    1d30:	91 e0       	ldi	r25, 0x01	; 1
    1d32:	81 15       	cp	r24, r1
    1d34:	91 05       	cpc	r25, r1
    1d36:	11 f0       	breq	.+4      	; 0x1d3c <L_Exit_79>

00001d38 <L_LOOP_79>:
    1d38:	01 97       	sbiw	r24, 0x01	; 1
    1d3a:	f1 f7       	brne	.-4      	; 0x1d38 <L_LOOP_79>

00001d3c <L_Exit_79>:
    1d3c:	e0 91 5b 02 	lds	r30, 0x025B
    1d40:	f0 91 5c 02 	lds	r31, 0x025C
    1d44:	40 81       	ld	r20, Z
    1d46:	30 91 5a 02 	lds	r19, 0x025A
    1d4a:	2f bf       	out	0x3f, r18	; 63
    1d4c:	85 e8       	ldi	r24, 0x85	; 133
    1d4e:	96 e0       	ldi	r25, 0x06	; 6
    1d50:	81 15       	cp	r24, r1
    1d52:	91 05       	cpc	r25, r1
    1d54:	11 f0       	breq	.+4      	; 0x1d5a <L_Exit_85>

00001d56 <L_LOOP_85>:
    1d56:	01 97       	sbiw	r24, 0x01	; 1
    1d58:	f1 f7       	brne	.-4      	; 0x1d56 <L_LOOP_85>

00001d5a <L_Exit_85>:
    1d5a:	80 81       	ld	r24, Z
    1d5c:	83 23       	and	r24, r19
    1d5e:	11 f4       	brne	.+4      	; 0x1d64 <L_Exit_85+0xa>
    1d60:	81 e0       	ldi	r24, 0x01	; 1
    1d62:	08 95       	ret
    1d64:	84 2f       	mov	r24, r20
    1d66:	83 23       	and	r24, r19
    1d68:	08 95       	ret

00001d6a <ow_set_bus>:
    1d6a:	50 93 5e 02 	sts	0x025E, r21
    1d6e:	40 93 5d 02 	sts	0x025D, r20
    1d72:	70 93 59 02 	sts	0x0259, r23
    1d76:	60 93 58 02 	sts	0x0258, r22
    1d7a:	90 93 5c 02 	sts	0x025C, r25
    1d7e:	80 93 5b 02 	sts	0x025B, r24
    1d82:	81 e0       	ldi	r24, 0x01	; 1
    1d84:	90 e0       	ldi	r25, 0x00	; 0
    1d86:	02 c0       	rjmp	.+4      	; 0x1d8c <ow_set_bus+0x22>
    1d88:	88 0f       	add	r24, r24
    1d8a:	99 1f       	adc	r25, r25
    1d8c:	2a 95       	dec	r18
    1d8e:	e2 f7       	brpl	.-8      	; 0x1d88 <ow_set_bus+0x1e>
    1d90:	80 93 5a 02 	sts	0x025A, r24
    1d94:	0e 94 71 0e 	call	0x1ce2	; 0x1ce2 <ow_reset>
    1d98:	08 95       	ret

00001d9a <ow_bit_io>:
    1d9a:	38 2f       	mov	r19, r24
    1d9c:	4f b7       	in	r20, 0x3f	; 63
    1d9e:	f8 94       	cli
    1da0:	e0 91 5d 02 	lds	r30, 0x025D
    1da4:	f0 91 5e 02 	lds	r31, 0x025E
    1da8:	80 81       	ld	r24, Z
    1daa:	90 91 5a 02 	lds	r25, 0x025A
    1dae:	89 2b       	or	r24, r25
    1db0:	80 83       	st	Z, r24
    1db2:	83 e0       	ldi	r24, 0x03	; 3
    1db4:	90 e0       	ldi	r25, 0x00	; 0
    1db6:	81 15       	cp	r24, r1
    1db8:	91 05       	cpc	r25, r1
    1dba:	11 f0       	breq	.+4      	; 0x1dc0 <L_Exit_131>

00001dbc <L_LOOP_131>:
    1dbc:	01 97       	sbiw	r24, 0x01	; 1
    1dbe:	f1 f7       	brne	.-4      	; 0x1dbc <L_LOOP_131>

00001dc0 <L_Exit_131>:
    1dc0:	33 23       	and	r19, r19
    1dc2:	51 f0       	breq	.+20     	; 0x1dd8 <L_Exit_131+0x18>
    1dc4:	e0 91 5d 02 	lds	r30, 0x025D
    1dc8:	f0 91 5e 02 	lds	r31, 0x025E
    1dcc:	90 81       	ld	r25, Z
    1dce:	80 91 5a 02 	lds	r24, 0x025A
    1dd2:	80 95       	com	r24
    1dd4:	89 23       	and	r24, r25
    1dd6:	80 83       	st	Z, r24
    1dd8:	88 e3       	ldi	r24, 0x38	; 56
    1dda:	90 e0       	ldi	r25, 0x00	; 0
    1ddc:	81 15       	cp	r24, r1
    1dde:	91 05       	cpc	r25, r1
    1de0:	11 f0       	breq	.+4      	; 0x1de6 <L_Exit_144>

00001de2 <L_LOOP_144>:
    1de2:	01 97       	sbiw	r24, 0x01	; 1
    1de4:	f1 f7       	brne	.-4      	; 0x1de2 <L_LOOP_144>

00001de6 <L_Exit_144>:
    1de6:	e0 91 5b 02 	lds	r30, 0x025B
    1dea:	f0 91 5c 02 	lds	r31, 0x025C
    1dee:	80 81       	ld	r24, Z
    1df0:	20 91 5a 02 	lds	r18, 0x025A
    1df4:	82 23       	and	r24, r18
    1df6:	09 f4       	brne	.+2      	; 0x1dfa <L_Exit_144+0x14>
    1df8:	30 e0       	ldi	r19, 0x00	; 0
    1dfa:	85 eb       	ldi	r24, 0xB5	; 181
    1dfc:	90 e0       	ldi	r25, 0x00	; 0
    1dfe:	81 15       	cp	r24, r1
    1e00:	91 05       	cpc	r25, r1
    1e02:	11 f0       	breq	.+4      	; 0x1e08 <L_Exit_156>

00001e04 <L_LOOP_156>:
    1e04:	01 97       	sbiw	r24, 0x01	; 1
    1e06:	f1 f7       	brne	.-4      	; 0x1e04 <L_LOOP_156>

00001e08 <L_Exit_156>:
    1e08:	e0 91 5d 02 	lds	r30, 0x025D
    1e0c:	f0 91 5e 02 	lds	r31, 0x025E
    1e10:	80 81       	ld	r24, Z
    1e12:	20 95       	com	r18
    1e14:	28 23       	and	r18, r24
    1e16:	20 83       	st	Z, r18
    1e18:	4f bf       	out	0x3f, r20	; 63
    1e1a:	83 2f       	mov	r24, r19
    1e1c:	08 95       	ret

00001e1e <ow_byte_wr>:
    1e1e:	0f 93       	push	r16
    1e20:	1f 93       	push	r17
    1e22:	18 2f       	mov	r17, r24
    1e24:	08 e0       	ldi	r16, 0x08	; 8
    1e26:	81 2f       	mov	r24, r17
    1e28:	81 70       	andi	r24, 0x01	; 1
    1e2a:	0e 94 cd 0e 	call	0x1d9a	; 0x1d9a <ow_bit_io>
    1e2e:	16 95       	lsr	r17
    1e30:	81 11       	cpse	r24, r1
    1e32:	10 68       	ori	r17, 0x80	; 128
    1e34:	01 50       	subi	r16, 0x01	; 1
    1e36:	b9 f7       	brne	.-18     	; 0x1e26 <ow_byte_wr+0x8>
    1e38:	81 2f       	mov	r24, r17
    1e3a:	1f 91       	pop	r17
    1e3c:	0f 91       	pop	r16
    1e3e:	08 95       	ret

00001e40 <ow_byte_rd>:
    1e40:	8f ef       	ldi	r24, 0xFF	; 255
    1e42:	0e 94 0f 0f 	call	0x1e1e	; 0x1e1e <ow_byte_wr>
    1e46:	08 95       	ret

00001e48 <ow_rom_search>:
    1e48:	df 92       	push	r13
    1e4a:	ef 92       	push	r14
    1e4c:	ff 92       	push	r15
    1e4e:	0f 93       	push	r16
    1e50:	1f 93       	push	r17
    1e52:	cf 93       	push	r28
    1e54:	df 93       	push	r29
    1e56:	e8 2e       	mov	r14, r24
    1e58:	eb 01       	movw	r28, r22
    1e5a:	0e 94 71 0e 	call	0x1ce2	; 0x1ce2 <ow_reset>
    1e5e:	88 23       	and	r24, r24
    1e60:	a1 f5       	brne	.+104    	; 0x1eca <ow_rom_search+0x82>
    1e62:	80 ef       	ldi	r24, 0xF0	; 240
    1e64:	0e 94 0f 0f 	call	0x1e1e	; 0x1e1e <ow_byte_wr>
    1e68:	80 e4       	ldi	r24, 0x40	; 64
    1e6a:	ff 24       	eor	r15, r15
    1e6c:	18 2f       	mov	r17, r24
    1e6e:	98 ef       	ldi	r25, 0xF8	; 248
    1e70:	d9 2e       	mov	r13, r25
    1e72:	d8 0e       	add	r13, r24
    1e74:	81 e0       	ldi	r24, 0x01	; 1
    1e76:	0e 94 cd 0e 	call	0x1d9a	; 0x1d9a <ow_bit_io>
    1e7a:	08 2f       	mov	r16, r24
    1e7c:	81 e0       	ldi	r24, 0x01	; 1
    1e7e:	0e 94 cd 0e 	call	0x1d9a	; 0x1d9a <ow_bit_io>
    1e82:	88 23       	and	r24, r24
    1e84:	29 f0       	breq	.+10     	; 0x1e90 <ow_rom_search+0x48>
    1e86:	00 23       	and	r16, r16
    1e88:	71 f0       	breq	.+28     	; 0x1ea6 <ow_rom_search+0x5e>
    1e8a:	8e ef       	ldi	r24, 0xFE	; 254
    1e8c:	f8 2e       	mov	r15, r24
    1e8e:	1f c0       	rjmp	.+62     	; 0x1ece <ow_rom_search+0x86>
    1e90:	00 23       	and	r16, r16
    1e92:	49 f4       	brne	.+18     	; 0x1ea6 <ow_rom_search+0x5e>
    1e94:	1e 15       	cp	r17, r14
    1e96:	28 f0       	brcs	.+10     	; 0x1ea2 <ow_rom_search+0x5a>
    1e98:	88 81       	ld	r24, Y
    1e9a:	80 ff       	sbrs	r24, 0
    1e9c:	04 c0       	rjmp	.+8      	; 0x1ea6 <ow_rom_search+0x5e>
    1e9e:	e1 16       	cp	r14, r17
    1ea0:	11 f0       	breq	.+4      	; 0x1ea6 <ow_rom_search+0x5e>
    1ea2:	f1 2e       	mov	r15, r17
    1ea4:	01 e0       	ldi	r16, 0x01	; 1
    1ea6:	80 2f       	mov	r24, r16
    1ea8:	0e 94 cd 0e 	call	0x1d9a	; 0x1d9a <ow_bit_io>
    1eac:	88 81       	ld	r24, Y
    1eae:	86 95       	lsr	r24
    1eb0:	88 83       	st	Y, r24
    1eb2:	00 23       	and	r16, r16
    1eb4:	11 f0       	breq	.+4      	; 0x1eba <ow_rom_search+0x72>
    1eb6:	80 68       	ori	r24, 0x80	; 128
    1eb8:	88 83       	st	Y, r24
    1eba:	11 50       	subi	r17, 0x01	; 1
    1ebc:	1d 15       	cp	r17, r13
    1ebe:	d1 f6       	brne	.-76     	; 0x1e74 <ow_rom_search+0x2c>
    1ec0:	11 23       	and	r17, r17
    1ec2:	29 f0       	breq	.+10     	; 0x1ece <ow_rom_search+0x86>
    1ec4:	21 96       	adiw	r28, 0x01	; 1
    1ec6:	81 2f       	mov	r24, r17
    1ec8:	d1 cf       	rjmp	.-94     	; 0x1e6c <ow_rom_search+0x24>
    1eca:	ff 24       	eor	r15, r15
    1ecc:	fa 94       	dec	r15
    1ece:	8f 2d       	mov	r24, r15
    1ed0:	df 91       	pop	r29
    1ed2:	cf 91       	pop	r28
    1ed4:	1f 91       	pop	r17
    1ed6:	0f 91       	pop	r16
    1ed8:	ff 90       	pop	r15
    1eda:	ef 90       	pop	r14
    1edc:	df 90       	pop	r13
    1ede:	08 95       	ret

00001ee0 <ow_command>:
    1ee0:	0f 93       	push	r16
    1ee2:	1f 93       	push	r17
    1ee4:	cf 93       	push	r28
    1ee6:	df 93       	push	r29
    1ee8:	08 2f       	mov	r16, r24
    1eea:	eb 01       	movw	r28, r22
    1eec:	0e 94 71 0e 	call	0x1ce2	; 0x1ce2 <ow_reset>
    1ef0:	20 97       	sbiw	r28, 0x00	; 0
    1ef2:	51 f0       	breq	.+20     	; 0x1f08 <ow_command+0x28>
    1ef4:	85 e5       	ldi	r24, 0x55	; 85
    1ef6:	0e 94 0f 0f 	call	0x1e1e	; 0x1e1e <ow_byte_wr>
    1efa:	18 e0       	ldi	r17, 0x08	; 8
    1efc:	89 91       	ld	r24, Y+
    1efe:	0e 94 0f 0f 	call	0x1e1e	; 0x1e1e <ow_byte_wr>
    1f02:	11 50       	subi	r17, 0x01	; 1
    1f04:	d9 f7       	brne	.-10     	; 0x1efc <ow_command+0x1c>
    1f06:	03 c0       	rjmp	.+6      	; 0x1f0e <ow_command+0x2e>
    1f08:	8c ec       	ldi	r24, 0xCC	; 204
    1f0a:	0e 94 0f 0f 	call	0x1e1e	; 0x1e1e <ow_byte_wr>
    1f0e:	80 2f       	mov	r24, r16
    1f10:	0e 94 0f 0f 	call	0x1e1e	; 0x1e1e <ow_byte_wr>
    1f14:	df 91       	pop	r29
    1f16:	cf 91       	pop	r28
    1f18:	1f 91       	pop	r17
    1f1a:	0f 91       	pop	r16
    1f1c:	08 95       	ret

00001f1e <__udivmodhi4>:
    1f1e:	aa 1b       	sub	r26, r26
    1f20:	bb 1b       	sub	r27, r27
    1f22:	51 e1       	ldi	r21, 0x11	; 17
    1f24:	07 c0       	rjmp	.+14     	; 0x1f34 <__udivmodhi4_ep>

00001f26 <__udivmodhi4_loop>:
    1f26:	aa 1f       	adc	r26, r26
    1f28:	bb 1f       	adc	r27, r27
    1f2a:	a6 17       	cp	r26, r22
    1f2c:	b7 07       	cpc	r27, r23
    1f2e:	10 f0       	brcs	.+4      	; 0x1f34 <__udivmodhi4_ep>
    1f30:	a6 1b       	sub	r26, r22
    1f32:	b7 0b       	sbc	r27, r23

00001f34 <__udivmodhi4_ep>:
    1f34:	88 1f       	adc	r24, r24
    1f36:	99 1f       	adc	r25, r25
    1f38:	5a 95       	dec	r21
    1f3a:	a9 f7       	brne	.-22     	; 0x1f26 <__udivmodhi4_loop>
    1f3c:	80 95       	com	r24
    1f3e:	90 95       	com	r25
    1f40:	bc 01       	movw	r22, r24
    1f42:	cd 01       	movw	r24, r26
    1f44:	08 95       	ret

00001f46 <__divmodhi4>:
    1f46:	97 fb       	bst	r25, 7
    1f48:	09 2e       	mov	r0, r25
    1f4a:	07 26       	eor	r0, r23
    1f4c:	0a d0       	rcall	.+20     	; 0x1f62 <__divmodhi4_neg1>
    1f4e:	77 fd       	sbrc	r23, 7
    1f50:	04 d0       	rcall	.+8      	; 0x1f5a <__divmodhi4_neg2>
    1f52:	e5 df       	rcall	.-54     	; 0x1f1e <__udivmodhi4>
    1f54:	06 d0       	rcall	.+12     	; 0x1f62 <__divmodhi4_neg1>
    1f56:	00 20       	and	r0, r0
    1f58:	1a f4       	brpl	.+6      	; 0x1f60 <__divmodhi4_exit>

00001f5a <__divmodhi4_neg2>:
    1f5a:	70 95       	com	r23
    1f5c:	61 95       	neg	r22
    1f5e:	7f 4f       	sbci	r23, 0xFF	; 255

00001f60 <__divmodhi4_exit>:
    1f60:	08 95       	ret

00001f62 <__divmodhi4_neg1>:
    1f62:	f6 f7       	brtc	.-4      	; 0x1f60 <__divmodhi4_exit>
    1f64:	90 95       	com	r25
    1f66:	81 95       	neg	r24
    1f68:	9f 4f       	sbci	r25, 0xFF	; 255
    1f6a:	08 95       	ret

00001f6c <__udivmodsi4>:
    1f6c:	a1 e2       	ldi	r26, 0x21	; 33
    1f6e:	1a 2e       	mov	r1, r26
    1f70:	aa 1b       	sub	r26, r26
    1f72:	bb 1b       	sub	r27, r27
    1f74:	fd 01       	movw	r30, r26
    1f76:	0d c0       	rjmp	.+26     	; 0x1f92 <__udivmodsi4_ep>

00001f78 <__udivmodsi4_loop>:
    1f78:	aa 1f       	adc	r26, r26
    1f7a:	bb 1f       	adc	r27, r27
    1f7c:	ee 1f       	adc	r30, r30
    1f7e:	ff 1f       	adc	r31, r31
    1f80:	a2 17       	cp	r26, r18
    1f82:	b3 07       	cpc	r27, r19
    1f84:	e4 07       	cpc	r30, r20
    1f86:	f5 07       	cpc	r31, r21
    1f88:	20 f0       	brcs	.+8      	; 0x1f92 <__udivmodsi4_ep>
    1f8a:	a2 1b       	sub	r26, r18
    1f8c:	b3 0b       	sbc	r27, r19
    1f8e:	e4 0b       	sbc	r30, r20
    1f90:	f5 0b       	sbc	r31, r21

00001f92 <__udivmodsi4_ep>:
    1f92:	66 1f       	adc	r22, r22
    1f94:	77 1f       	adc	r23, r23
    1f96:	88 1f       	adc	r24, r24
    1f98:	99 1f       	adc	r25, r25
    1f9a:	1a 94       	dec	r1
    1f9c:	69 f7       	brne	.-38     	; 0x1f78 <__udivmodsi4_loop>
    1f9e:	60 95       	com	r22
    1fa0:	70 95       	com	r23
    1fa2:	80 95       	com	r24
    1fa4:	90 95       	com	r25
    1fa6:	9b 01       	movw	r18, r22
    1fa8:	ac 01       	movw	r20, r24
    1faa:	bd 01       	movw	r22, r26
    1fac:	cf 01       	movw	r24, r30
    1fae:	08 95       	ret

00001fb0 <strcmp_P>:
    1fb0:	fb 01       	movw	r30, r22
    1fb2:	dc 01       	movw	r26, r24
    1fb4:	8d 91       	ld	r24, X+
    1fb6:	05 90       	lpm	r0, Z+
    1fb8:	80 19       	sub	r24, r0
    1fba:	01 10       	cpse	r0, r1
    1fbc:	d9 f3       	breq	.-10     	; 0x1fb4 <strcmp_P+0x4>
    1fbe:	99 0b       	sbc	r25, r25
    1fc0:	08 95       	ret

00001fc2 <strcpy_P>:
    1fc2:	fb 01       	movw	r30, r22
    1fc4:	dc 01       	movw	r26, r24
    1fc6:	05 90       	lpm	r0, Z+
    1fc8:	0d 92       	st	X+, r0
    1fca:	00 20       	and	r0, r0
    1fcc:	e1 f7       	brne	.-8      	; 0x1fc6 <strcpy_P+0x4>
    1fce:	08 95       	ret

00001fd0 <printf>:
    1fd0:	a0 e0       	ldi	r26, 0x00	; 0
    1fd2:	b0 e0       	ldi	r27, 0x00	; 0
    1fd4:	ee ee       	ldi	r30, 0xEE	; 238
    1fd6:	ff e0       	ldi	r31, 0x0F	; 15
    1fd8:	0c 94 d8 12 	jmp	0x25b0	; 0x25b0 <__prologue_saves__+0x20>
    1fdc:	fe 01       	movw	r30, r28
    1fde:	35 96       	adiw	r30, 0x05	; 5
    1fe0:	61 91       	ld	r22, Z+
    1fe2:	71 91       	ld	r23, Z+
    1fe4:	80 91 61 02 	lds	r24, 0x0261
    1fe8:	90 91 62 02 	lds	r25, 0x0262
    1fec:	af 01       	movw	r20, r30
    1fee:	0e 94 23 10 	call	0x2046	; 0x2046 <vfprintf>
    1ff2:	20 96       	adiw	r28, 0x00	; 0
    1ff4:	e2 e0       	ldi	r30, 0x02	; 2
    1ff6:	0c 94 f4 12 	jmp	0x25e8	; 0x25e8 <__epilogue_restores__+0x20>

00001ffa <printf_P>:
    1ffa:	a0 e0       	ldi	r26, 0x00	; 0
    1ffc:	b0 e0       	ldi	r27, 0x00	; 0
    1ffe:	e3 e0       	ldi	r30, 0x03	; 3
    2000:	f0 e1       	ldi	r31, 0x10	; 16
    2002:	0c 94 d8 12 	jmp	0x25b0	; 0x25b0 <__prologue_saves__+0x20>
    2006:	fe 01       	movw	r30, r28
    2008:	35 96       	adiw	r30, 0x05	; 5
    200a:	61 91       	ld	r22, Z+
    200c:	71 91       	ld	r23, Z+
    200e:	a0 91 61 02 	lds	r26, 0x0261
    2012:	b0 91 62 02 	lds	r27, 0x0262
    2016:	13 96       	adiw	r26, 0x03	; 3
    2018:	8c 91       	ld	r24, X
    201a:	13 97       	sbiw	r26, 0x03	; 3
    201c:	88 60       	ori	r24, 0x08	; 8
    201e:	13 96       	adiw	r26, 0x03	; 3
    2020:	8c 93       	st	X, r24
    2022:	80 91 61 02 	lds	r24, 0x0261
    2026:	90 91 62 02 	lds	r25, 0x0262
    202a:	af 01       	movw	r20, r30
    202c:	0e 94 23 10 	call	0x2046	; 0x2046 <vfprintf>
    2030:	e0 91 61 02 	lds	r30, 0x0261
    2034:	f0 91 62 02 	lds	r31, 0x0262
    2038:	23 81       	ldd	r18, Z+3	; 0x03
    203a:	27 7f       	andi	r18, 0xF7	; 247
    203c:	23 83       	std	Z+3, r18	; 0x03
    203e:	20 96       	adiw	r28, 0x00	; 0
    2040:	e2 e0       	ldi	r30, 0x02	; 2
    2042:	0c 94 f4 12 	jmp	0x25e8	; 0x25e8 <__epilogue_restores__+0x20>

00002046 <vfprintf>:
    2046:	ab e0       	ldi	r26, 0x0B	; 11
    2048:	b0 e0       	ldi	r27, 0x00	; 0
    204a:	e9 e2       	ldi	r30, 0x29	; 41
    204c:	f0 e1       	ldi	r31, 0x10	; 16
    204e:	0c 94 c8 12 	jmp	0x2590	; 0x2590 <__prologue_saves__>
    2052:	3c 01       	movw	r6, r24
    2054:	2b 01       	movw	r4, r22
    2056:	5a 01       	movw	r10, r20
    2058:	fc 01       	movw	r30, r24
    205a:	17 82       	std	Z+7, r1	; 0x07
    205c:	16 82       	std	Z+6, r1	; 0x06
    205e:	83 81       	ldd	r24, Z+3	; 0x03
    2060:	81 fd       	sbrc	r24, 1
    2062:	03 c0       	rjmp	.+6      	; 0x206a <vfprintf+0x24>
    2064:	6f ef       	ldi	r22, 0xFF	; 255
    2066:	7f ef       	ldi	r23, 0xFF	; 255
    2068:	c6 c1       	rjmp	.+908    	; 0x23f6 <vfprintf+0x3b0>
    206a:	9a e0       	ldi	r25, 0x0A	; 10
    206c:	89 2e       	mov	r8, r25
    206e:	1e 01       	movw	r2, r28
    2070:	08 94       	sec
    2072:	21 1c       	adc	r2, r1
    2074:	31 1c       	adc	r3, r1
    2076:	f3 01       	movw	r30, r6
    2078:	23 81       	ldd	r18, Z+3	; 0x03
    207a:	f2 01       	movw	r30, r4
    207c:	23 fd       	sbrc	r18, 3
    207e:	85 91       	lpm	r24, Z+
    2080:	23 ff       	sbrs	r18, 3
    2082:	81 91       	ld	r24, Z+
    2084:	2f 01       	movw	r4, r30
    2086:	88 23       	and	r24, r24
    2088:	09 f4       	brne	.+2      	; 0x208c <vfprintf+0x46>
    208a:	b2 c1       	rjmp	.+868    	; 0x23f0 <vfprintf+0x3aa>
    208c:	85 32       	cpi	r24, 0x25	; 37
    208e:	39 f4       	brne	.+14     	; 0x209e <vfprintf+0x58>
    2090:	23 fd       	sbrc	r18, 3
    2092:	85 91       	lpm	r24, Z+
    2094:	23 ff       	sbrs	r18, 3
    2096:	81 91       	ld	r24, Z+
    2098:	2f 01       	movw	r4, r30
    209a:	85 32       	cpi	r24, 0x25	; 37
    209c:	29 f4       	brne	.+10     	; 0x20a8 <vfprintf+0x62>
    209e:	90 e0       	ldi	r25, 0x00	; 0
    20a0:	b3 01       	movw	r22, r6
    20a2:	0e 94 3e 12 	call	0x247c	; 0x247c <fputc>
    20a6:	e7 cf       	rjmp	.-50     	; 0x2076 <vfprintf+0x30>
    20a8:	98 2f       	mov	r25, r24
    20aa:	ff 24       	eor	r15, r15
    20ac:	ee 24       	eor	r14, r14
    20ae:	99 24       	eor	r9, r9
    20b0:	ff e1       	ldi	r31, 0x1F	; 31
    20b2:	ff 15       	cp	r31, r15
    20b4:	d0 f0       	brcs	.+52     	; 0x20ea <vfprintf+0xa4>
    20b6:	9b 32       	cpi	r25, 0x2B	; 43
    20b8:	69 f0       	breq	.+26     	; 0x20d4 <vfprintf+0x8e>
    20ba:	9c 32       	cpi	r25, 0x2C	; 44
    20bc:	28 f4       	brcc	.+10     	; 0x20c8 <vfprintf+0x82>
    20be:	90 32       	cpi	r25, 0x20	; 32
    20c0:	59 f0       	breq	.+22     	; 0x20d8 <vfprintf+0x92>
    20c2:	93 32       	cpi	r25, 0x23	; 35
    20c4:	91 f4       	brne	.+36     	; 0x20ea <vfprintf+0xa4>
    20c6:	0e c0       	rjmp	.+28     	; 0x20e4 <vfprintf+0x9e>
    20c8:	9d 32       	cpi	r25, 0x2D	; 45
    20ca:	49 f0       	breq	.+18     	; 0x20de <vfprintf+0x98>
    20cc:	90 33       	cpi	r25, 0x30	; 48
    20ce:	69 f4       	brne	.+26     	; 0x20ea <vfprintf+0xa4>
    20d0:	41 e0       	ldi	r20, 0x01	; 1
    20d2:	24 c0       	rjmp	.+72     	; 0x211c <vfprintf+0xd6>
    20d4:	52 e0       	ldi	r21, 0x02	; 2
    20d6:	f5 2a       	or	r15, r21
    20d8:	84 e0       	ldi	r24, 0x04	; 4
    20da:	f8 2a       	or	r15, r24
    20dc:	28 c0       	rjmp	.+80     	; 0x212e <vfprintf+0xe8>
    20de:	98 e0       	ldi	r25, 0x08	; 8
    20e0:	f9 2a       	or	r15, r25
    20e2:	25 c0       	rjmp	.+74     	; 0x212e <vfprintf+0xe8>
    20e4:	e0 e1       	ldi	r30, 0x10	; 16
    20e6:	fe 2a       	or	r15, r30
    20e8:	22 c0       	rjmp	.+68     	; 0x212e <vfprintf+0xe8>
    20ea:	f7 fc       	sbrc	r15, 7
    20ec:	29 c0       	rjmp	.+82     	; 0x2140 <vfprintf+0xfa>
    20ee:	89 2f       	mov	r24, r25
    20f0:	80 53       	subi	r24, 0x30	; 48
    20f2:	8a 30       	cpi	r24, 0x0A	; 10
    20f4:	70 f4       	brcc	.+28     	; 0x2112 <vfprintf+0xcc>
    20f6:	f6 fe       	sbrs	r15, 6
    20f8:	05 c0       	rjmp	.+10     	; 0x2104 <vfprintf+0xbe>
    20fa:	98 9c       	mul	r9, r8
    20fc:	90 2c       	mov	r9, r0
    20fe:	11 24       	eor	r1, r1
    2100:	98 0e       	add	r9, r24
    2102:	15 c0       	rjmp	.+42     	; 0x212e <vfprintf+0xe8>
    2104:	e8 9c       	mul	r14, r8
    2106:	e0 2c       	mov	r14, r0
    2108:	11 24       	eor	r1, r1
    210a:	e8 0e       	add	r14, r24
    210c:	f0 e2       	ldi	r31, 0x20	; 32
    210e:	ff 2a       	or	r15, r31
    2110:	0e c0       	rjmp	.+28     	; 0x212e <vfprintf+0xe8>
    2112:	9e 32       	cpi	r25, 0x2E	; 46
    2114:	29 f4       	brne	.+10     	; 0x2120 <vfprintf+0xda>
    2116:	f6 fc       	sbrc	r15, 6
    2118:	6b c1       	rjmp	.+726    	; 0x23f0 <vfprintf+0x3aa>
    211a:	40 e4       	ldi	r20, 0x40	; 64
    211c:	f4 2a       	or	r15, r20
    211e:	07 c0       	rjmp	.+14     	; 0x212e <vfprintf+0xe8>
    2120:	9c 36       	cpi	r25, 0x6C	; 108
    2122:	19 f4       	brne	.+6      	; 0x212a <vfprintf+0xe4>
    2124:	50 e8       	ldi	r21, 0x80	; 128
    2126:	f5 2a       	or	r15, r21
    2128:	02 c0       	rjmp	.+4      	; 0x212e <vfprintf+0xe8>
    212a:	98 36       	cpi	r25, 0x68	; 104
    212c:	49 f4       	brne	.+18     	; 0x2140 <vfprintf+0xfa>
    212e:	f2 01       	movw	r30, r4
    2130:	23 fd       	sbrc	r18, 3
    2132:	95 91       	lpm	r25, Z+
    2134:	23 ff       	sbrs	r18, 3
    2136:	91 91       	ld	r25, Z+
    2138:	2f 01       	movw	r4, r30
    213a:	99 23       	and	r25, r25
    213c:	09 f0       	breq	.+2      	; 0x2140 <vfprintf+0xfa>
    213e:	b8 cf       	rjmp	.-144    	; 0x20b0 <vfprintf+0x6a>
    2140:	89 2f       	mov	r24, r25
    2142:	85 54       	subi	r24, 0x45	; 69
    2144:	83 30       	cpi	r24, 0x03	; 3
    2146:	18 f0       	brcs	.+6      	; 0x214e <vfprintf+0x108>
    2148:	80 52       	subi	r24, 0x20	; 32
    214a:	83 30       	cpi	r24, 0x03	; 3
    214c:	38 f4       	brcc	.+14     	; 0x215c <vfprintf+0x116>
    214e:	44 e0       	ldi	r20, 0x04	; 4
    2150:	50 e0       	ldi	r21, 0x00	; 0
    2152:	a4 0e       	add	r10, r20
    2154:	b5 1e       	adc	r11, r21
    2156:	5f e3       	ldi	r21, 0x3F	; 63
    2158:	59 83       	std	Y+1, r21	; 0x01
    215a:	0f c0       	rjmp	.+30     	; 0x217a <vfprintf+0x134>
    215c:	93 36       	cpi	r25, 0x63	; 99
    215e:	31 f0       	breq	.+12     	; 0x216c <vfprintf+0x126>
    2160:	93 37       	cpi	r25, 0x73	; 115
    2162:	79 f0       	breq	.+30     	; 0x2182 <vfprintf+0x13c>
    2164:	93 35       	cpi	r25, 0x53	; 83
    2166:	09 f0       	breq	.+2      	; 0x216a <vfprintf+0x124>
    2168:	56 c0       	rjmp	.+172    	; 0x2216 <vfprintf+0x1d0>
    216a:	20 c0       	rjmp	.+64     	; 0x21ac <vfprintf+0x166>
    216c:	f5 01       	movw	r30, r10
    216e:	80 81       	ld	r24, Z
    2170:	89 83       	std	Y+1, r24	; 0x01
    2172:	42 e0       	ldi	r20, 0x02	; 2
    2174:	50 e0       	ldi	r21, 0x00	; 0
    2176:	a4 0e       	add	r10, r20
    2178:	b5 1e       	adc	r11, r21
    217a:	61 01       	movw	r12, r2
    217c:	01 e0       	ldi	r16, 0x01	; 1
    217e:	10 e0       	ldi	r17, 0x00	; 0
    2180:	12 c0       	rjmp	.+36     	; 0x21a6 <vfprintf+0x160>
    2182:	f5 01       	movw	r30, r10
    2184:	c0 80       	ld	r12, Z
    2186:	d1 80       	ldd	r13, Z+1	; 0x01
    2188:	f6 fc       	sbrc	r15, 6
    218a:	03 c0       	rjmp	.+6      	; 0x2192 <vfprintf+0x14c>
    218c:	6f ef       	ldi	r22, 0xFF	; 255
    218e:	7f ef       	ldi	r23, 0xFF	; 255
    2190:	02 c0       	rjmp	.+4      	; 0x2196 <vfprintf+0x150>
    2192:	69 2d       	mov	r22, r9
    2194:	70 e0       	ldi	r23, 0x00	; 0
    2196:	42 e0       	ldi	r20, 0x02	; 2
    2198:	50 e0       	ldi	r21, 0x00	; 0
    219a:	a4 0e       	add	r10, r20
    219c:	b5 1e       	adc	r11, r21
    219e:	c6 01       	movw	r24, r12
    21a0:	0e 94 33 12 	call	0x2466	; 0x2466 <strnlen>
    21a4:	8c 01       	movw	r16, r24
    21a6:	5f e7       	ldi	r21, 0x7F	; 127
    21a8:	f5 22       	and	r15, r21
    21aa:	14 c0       	rjmp	.+40     	; 0x21d4 <vfprintf+0x18e>
    21ac:	f5 01       	movw	r30, r10
    21ae:	c0 80       	ld	r12, Z
    21b0:	d1 80       	ldd	r13, Z+1	; 0x01
    21b2:	f6 fc       	sbrc	r15, 6
    21b4:	03 c0       	rjmp	.+6      	; 0x21bc <vfprintf+0x176>
    21b6:	6f ef       	ldi	r22, 0xFF	; 255
    21b8:	7f ef       	ldi	r23, 0xFF	; 255
    21ba:	02 c0       	rjmp	.+4      	; 0x21c0 <vfprintf+0x17a>
    21bc:	69 2d       	mov	r22, r9
    21be:	70 e0       	ldi	r23, 0x00	; 0
    21c0:	42 e0       	ldi	r20, 0x02	; 2
    21c2:	50 e0       	ldi	r21, 0x00	; 0
    21c4:	a4 0e       	add	r10, r20
    21c6:	b5 1e       	adc	r11, r21
    21c8:	c6 01       	movw	r24, r12
    21ca:	0e 94 28 12 	call	0x2450	; 0x2450 <strnlen_P>
    21ce:	8c 01       	movw	r16, r24
    21d0:	50 e8       	ldi	r21, 0x80	; 128
    21d2:	f5 2a       	or	r15, r21
    21d4:	f3 fe       	sbrs	r15, 3
    21d6:	07 c0       	rjmp	.+14     	; 0x21e6 <vfprintf+0x1a0>
    21d8:	1a c0       	rjmp	.+52     	; 0x220e <vfprintf+0x1c8>
    21da:	80 e2       	ldi	r24, 0x20	; 32
    21dc:	90 e0       	ldi	r25, 0x00	; 0
    21de:	b3 01       	movw	r22, r6
    21e0:	0e 94 3e 12 	call	0x247c	; 0x247c <fputc>
    21e4:	ea 94       	dec	r14
    21e6:	8e 2d       	mov	r24, r14
    21e8:	90 e0       	ldi	r25, 0x00	; 0
    21ea:	08 17       	cp	r16, r24
    21ec:	19 07       	cpc	r17, r25
    21ee:	a8 f3       	brcs	.-22     	; 0x21da <vfprintf+0x194>
    21f0:	0e c0       	rjmp	.+28     	; 0x220e <vfprintf+0x1c8>
    21f2:	f6 01       	movw	r30, r12
    21f4:	f7 fc       	sbrc	r15, 7
    21f6:	85 91       	lpm	r24, Z+
    21f8:	f7 fe       	sbrs	r15, 7
    21fa:	81 91       	ld	r24, Z+
    21fc:	6f 01       	movw	r12, r30
    21fe:	90 e0       	ldi	r25, 0x00	; 0
    2200:	b3 01       	movw	r22, r6
    2202:	0e 94 3e 12 	call	0x247c	; 0x247c <fputc>
    2206:	e1 10       	cpse	r14, r1
    2208:	ea 94       	dec	r14
    220a:	01 50       	subi	r16, 0x01	; 1
    220c:	10 40       	sbci	r17, 0x00	; 0
    220e:	01 15       	cp	r16, r1
    2210:	11 05       	cpc	r17, r1
    2212:	79 f7       	brne	.-34     	; 0x21f2 <vfprintf+0x1ac>
    2214:	ea c0       	rjmp	.+468    	; 0x23ea <vfprintf+0x3a4>
    2216:	94 36       	cpi	r25, 0x64	; 100
    2218:	11 f0       	breq	.+4      	; 0x221e <vfprintf+0x1d8>
    221a:	99 36       	cpi	r25, 0x69	; 105
    221c:	69 f5       	brne	.+90     	; 0x2278 <vfprintf+0x232>
    221e:	f7 fe       	sbrs	r15, 7
    2220:	08 c0       	rjmp	.+16     	; 0x2232 <vfprintf+0x1ec>
    2222:	f5 01       	movw	r30, r10
    2224:	20 81       	ld	r18, Z
    2226:	31 81       	ldd	r19, Z+1	; 0x01
    2228:	42 81       	ldd	r20, Z+2	; 0x02
    222a:	53 81       	ldd	r21, Z+3	; 0x03
    222c:	84 e0       	ldi	r24, 0x04	; 4
    222e:	90 e0       	ldi	r25, 0x00	; 0
    2230:	0a c0       	rjmp	.+20     	; 0x2246 <vfprintf+0x200>
    2232:	f5 01       	movw	r30, r10
    2234:	80 81       	ld	r24, Z
    2236:	91 81       	ldd	r25, Z+1	; 0x01
    2238:	9c 01       	movw	r18, r24
    223a:	44 27       	eor	r20, r20
    223c:	37 fd       	sbrc	r19, 7
    223e:	40 95       	com	r20
    2240:	54 2f       	mov	r21, r20
    2242:	82 e0       	ldi	r24, 0x02	; 2
    2244:	90 e0       	ldi	r25, 0x00	; 0
    2246:	a8 0e       	add	r10, r24
    2248:	b9 1e       	adc	r11, r25
    224a:	9f e6       	ldi	r25, 0x6F	; 111
    224c:	f9 22       	and	r15, r25
    224e:	57 ff       	sbrs	r21, 7
    2250:	09 c0       	rjmp	.+18     	; 0x2264 <vfprintf+0x21e>
    2252:	50 95       	com	r21
    2254:	40 95       	com	r20
    2256:	30 95       	com	r19
    2258:	21 95       	neg	r18
    225a:	3f 4f       	sbci	r19, 0xFF	; 255
    225c:	4f 4f       	sbci	r20, 0xFF	; 255
    225e:	5f 4f       	sbci	r21, 0xFF	; 255
    2260:	e0 e8       	ldi	r30, 0x80	; 128
    2262:	fe 2a       	or	r15, r30
    2264:	ca 01       	movw	r24, r20
    2266:	b9 01       	movw	r22, r18
    2268:	a1 01       	movw	r20, r2
    226a:	2a e0       	ldi	r18, 0x0A	; 10
    226c:	30 e0       	ldi	r19, 0x00	; 0
    226e:	0e 94 6a 12 	call	0x24d4	; 0x24d4 <__ultoa_invert>
    2272:	d8 2e       	mov	r13, r24
    2274:	d2 18       	sub	r13, r2
    2276:	40 c0       	rjmp	.+128    	; 0x22f8 <vfprintf+0x2b2>
    2278:	95 37       	cpi	r25, 0x75	; 117
    227a:	29 f4       	brne	.+10     	; 0x2286 <vfprintf+0x240>
    227c:	1f 2d       	mov	r17, r15
    227e:	1f 7e       	andi	r17, 0xEF	; 239
    2280:	2a e0       	ldi	r18, 0x0A	; 10
    2282:	30 e0       	ldi	r19, 0x00	; 0
    2284:	1d c0       	rjmp	.+58     	; 0x22c0 <vfprintf+0x27a>
    2286:	1f 2d       	mov	r17, r15
    2288:	19 7f       	andi	r17, 0xF9	; 249
    228a:	9f 36       	cpi	r25, 0x6F	; 111
    228c:	61 f0       	breq	.+24     	; 0x22a6 <vfprintf+0x260>
    228e:	90 37       	cpi	r25, 0x70	; 112
    2290:	20 f4       	brcc	.+8      	; 0x229a <vfprintf+0x254>
    2292:	98 35       	cpi	r25, 0x58	; 88
    2294:	09 f0       	breq	.+2      	; 0x2298 <vfprintf+0x252>
    2296:	ac c0       	rjmp	.+344    	; 0x23f0 <vfprintf+0x3aa>
    2298:	0f c0       	rjmp	.+30     	; 0x22b8 <vfprintf+0x272>
    229a:	90 37       	cpi	r25, 0x70	; 112
    229c:	39 f0       	breq	.+14     	; 0x22ac <vfprintf+0x266>
    229e:	98 37       	cpi	r25, 0x78	; 120
    22a0:	09 f0       	breq	.+2      	; 0x22a4 <vfprintf+0x25e>
    22a2:	a6 c0       	rjmp	.+332    	; 0x23f0 <vfprintf+0x3aa>
    22a4:	04 c0       	rjmp	.+8      	; 0x22ae <vfprintf+0x268>
    22a6:	28 e0       	ldi	r18, 0x08	; 8
    22a8:	30 e0       	ldi	r19, 0x00	; 0
    22aa:	0a c0       	rjmp	.+20     	; 0x22c0 <vfprintf+0x27a>
    22ac:	10 61       	ori	r17, 0x10	; 16
    22ae:	14 fd       	sbrc	r17, 4
    22b0:	14 60       	ori	r17, 0x04	; 4
    22b2:	20 e1       	ldi	r18, 0x10	; 16
    22b4:	30 e0       	ldi	r19, 0x00	; 0
    22b6:	04 c0       	rjmp	.+8      	; 0x22c0 <vfprintf+0x27a>
    22b8:	14 fd       	sbrc	r17, 4
    22ba:	16 60       	ori	r17, 0x06	; 6
    22bc:	20 e1       	ldi	r18, 0x10	; 16
    22be:	32 e0       	ldi	r19, 0x02	; 2
    22c0:	17 ff       	sbrs	r17, 7
    22c2:	08 c0       	rjmp	.+16     	; 0x22d4 <vfprintf+0x28e>
    22c4:	f5 01       	movw	r30, r10
    22c6:	60 81       	ld	r22, Z
    22c8:	71 81       	ldd	r23, Z+1	; 0x01
    22ca:	82 81       	ldd	r24, Z+2	; 0x02
    22cc:	93 81       	ldd	r25, Z+3	; 0x03
    22ce:	44 e0       	ldi	r20, 0x04	; 4
    22d0:	50 e0       	ldi	r21, 0x00	; 0
    22d2:	08 c0       	rjmp	.+16     	; 0x22e4 <vfprintf+0x29e>
    22d4:	f5 01       	movw	r30, r10
    22d6:	80 81       	ld	r24, Z
    22d8:	91 81       	ldd	r25, Z+1	; 0x01
    22da:	bc 01       	movw	r22, r24
    22dc:	80 e0       	ldi	r24, 0x00	; 0
    22de:	90 e0       	ldi	r25, 0x00	; 0
    22e0:	42 e0       	ldi	r20, 0x02	; 2
    22e2:	50 e0       	ldi	r21, 0x00	; 0
    22e4:	a4 0e       	add	r10, r20
    22e6:	b5 1e       	adc	r11, r21
    22e8:	a1 01       	movw	r20, r2
    22ea:	0e 94 6a 12 	call	0x24d4	; 0x24d4 <__ultoa_invert>
    22ee:	d8 2e       	mov	r13, r24
    22f0:	d2 18       	sub	r13, r2
    22f2:	8f e7       	ldi	r24, 0x7F	; 127
    22f4:	f8 2e       	mov	r15, r24
    22f6:	f1 22       	and	r15, r17
    22f8:	f6 fe       	sbrs	r15, 6
    22fa:	0b c0       	rjmp	.+22     	; 0x2312 <vfprintf+0x2cc>
    22fc:	5e ef       	ldi	r21, 0xFE	; 254
    22fe:	f5 22       	and	r15, r21
    2300:	d9 14       	cp	r13, r9
    2302:	38 f4       	brcc	.+14     	; 0x2312 <vfprintf+0x2cc>
    2304:	f4 fe       	sbrs	r15, 4
    2306:	07 c0       	rjmp	.+14     	; 0x2316 <vfprintf+0x2d0>
    2308:	f2 fc       	sbrc	r15, 2
    230a:	05 c0       	rjmp	.+10     	; 0x2316 <vfprintf+0x2d0>
    230c:	8f ee       	ldi	r24, 0xEF	; 239
    230e:	f8 22       	and	r15, r24
    2310:	02 c0       	rjmp	.+4      	; 0x2316 <vfprintf+0x2d0>
    2312:	1d 2d       	mov	r17, r13
    2314:	01 c0       	rjmp	.+2      	; 0x2318 <vfprintf+0x2d2>
    2316:	19 2d       	mov	r17, r9
    2318:	f4 fe       	sbrs	r15, 4
    231a:	0d c0       	rjmp	.+26     	; 0x2336 <vfprintf+0x2f0>
    231c:	fe 01       	movw	r30, r28
    231e:	ed 0d       	add	r30, r13
    2320:	f1 1d       	adc	r31, r1
    2322:	80 81       	ld	r24, Z
    2324:	80 33       	cpi	r24, 0x30	; 48
    2326:	19 f4       	brne	.+6      	; 0x232e <vfprintf+0x2e8>
    2328:	99 ee       	ldi	r25, 0xE9	; 233
    232a:	f9 22       	and	r15, r25
    232c:	08 c0       	rjmp	.+16     	; 0x233e <vfprintf+0x2f8>
    232e:	1f 5f       	subi	r17, 0xFF	; 255
    2330:	f2 fe       	sbrs	r15, 2
    2332:	05 c0       	rjmp	.+10     	; 0x233e <vfprintf+0x2f8>
    2334:	03 c0       	rjmp	.+6      	; 0x233c <vfprintf+0x2f6>
    2336:	8f 2d       	mov	r24, r15
    2338:	86 78       	andi	r24, 0x86	; 134
    233a:	09 f0       	breq	.+2      	; 0x233e <vfprintf+0x2f8>
    233c:	1f 5f       	subi	r17, 0xFF	; 255
    233e:	0f 2d       	mov	r16, r15
    2340:	f3 fc       	sbrc	r15, 3
    2342:	14 c0       	rjmp	.+40     	; 0x236c <vfprintf+0x326>
    2344:	f0 fe       	sbrs	r15, 0
    2346:	0f c0       	rjmp	.+30     	; 0x2366 <vfprintf+0x320>
    2348:	1e 15       	cp	r17, r14
    234a:	10 f0       	brcs	.+4      	; 0x2350 <vfprintf+0x30a>
    234c:	9d 2c       	mov	r9, r13
    234e:	0b c0       	rjmp	.+22     	; 0x2366 <vfprintf+0x320>
    2350:	9d 2c       	mov	r9, r13
    2352:	9e 0c       	add	r9, r14
    2354:	91 1a       	sub	r9, r17
    2356:	1e 2d       	mov	r17, r14
    2358:	06 c0       	rjmp	.+12     	; 0x2366 <vfprintf+0x320>
    235a:	80 e2       	ldi	r24, 0x20	; 32
    235c:	90 e0       	ldi	r25, 0x00	; 0
    235e:	b3 01       	movw	r22, r6
    2360:	0e 94 3e 12 	call	0x247c	; 0x247c <fputc>
    2364:	1f 5f       	subi	r17, 0xFF	; 255
    2366:	1e 15       	cp	r17, r14
    2368:	c0 f3       	brcs	.-16     	; 0x235a <vfprintf+0x314>
    236a:	04 c0       	rjmp	.+8      	; 0x2374 <vfprintf+0x32e>
    236c:	1e 15       	cp	r17, r14
    236e:	10 f4       	brcc	.+4      	; 0x2374 <vfprintf+0x32e>
    2370:	e1 1a       	sub	r14, r17
    2372:	01 c0       	rjmp	.+2      	; 0x2376 <vfprintf+0x330>
    2374:	ee 24       	eor	r14, r14
    2376:	04 ff       	sbrs	r16, 4
    2378:	0f c0       	rjmp	.+30     	; 0x2398 <vfprintf+0x352>
    237a:	80 e3       	ldi	r24, 0x30	; 48
    237c:	90 e0       	ldi	r25, 0x00	; 0
    237e:	b3 01       	movw	r22, r6
    2380:	0e 94 3e 12 	call	0x247c	; 0x247c <fputc>
    2384:	02 ff       	sbrs	r16, 2
    2386:	1d c0       	rjmp	.+58     	; 0x23c2 <vfprintf+0x37c>
    2388:	01 fd       	sbrc	r16, 1
    238a:	03 c0       	rjmp	.+6      	; 0x2392 <vfprintf+0x34c>
    238c:	88 e7       	ldi	r24, 0x78	; 120
    238e:	90 e0       	ldi	r25, 0x00	; 0
    2390:	0e c0       	rjmp	.+28     	; 0x23ae <vfprintf+0x368>
    2392:	88 e5       	ldi	r24, 0x58	; 88
    2394:	90 e0       	ldi	r25, 0x00	; 0
    2396:	0b c0       	rjmp	.+22     	; 0x23ae <vfprintf+0x368>
    2398:	80 2f       	mov	r24, r16
    239a:	86 78       	andi	r24, 0x86	; 134
    239c:	91 f0       	breq	.+36     	; 0x23c2 <vfprintf+0x37c>
    239e:	01 ff       	sbrs	r16, 1
    23a0:	02 c0       	rjmp	.+4      	; 0x23a6 <vfprintf+0x360>
    23a2:	8b e2       	ldi	r24, 0x2B	; 43
    23a4:	01 c0       	rjmp	.+2      	; 0x23a8 <vfprintf+0x362>
    23a6:	80 e2       	ldi	r24, 0x20	; 32
    23a8:	f7 fc       	sbrc	r15, 7
    23aa:	8d e2       	ldi	r24, 0x2D	; 45
    23ac:	90 e0       	ldi	r25, 0x00	; 0
    23ae:	b3 01       	movw	r22, r6
    23b0:	0e 94 3e 12 	call	0x247c	; 0x247c <fputc>
    23b4:	06 c0       	rjmp	.+12     	; 0x23c2 <vfprintf+0x37c>
    23b6:	80 e3       	ldi	r24, 0x30	; 48
    23b8:	90 e0       	ldi	r25, 0x00	; 0
    23ba:	b3 01       	movw	r22, r6
    23bc:	0e 94 3e 12 	call	0x247c	; 0x247c <fputc>
    23c0:	9a 94       	dec	r9
    23c2:	d9 14       	cp	r13, r9
    23c4:	c0 f3       	brcs	.-16     	; 0x23b6 <vfprintf+0x370>
    23c6:	da 94       	dec	r13
    23c8:	f1 01       	movw	r30, r2
    23ca:	ed 0d       	add	r30, r13
    23cc:	f1 1d       	adc	r31, r1
    23ce:	80 81       	ld	r24, Z
    23d0:	90 e0       	ldi	r25, 0x00	; 0
    23d2:	b3 01       	movw	r22, r6
    23d4:	0e 94 3e 12 	call	0x247c	; 0x247c <fputc>
    23d8:	dd 20       	and	r13, r13
    23da:	a9 f7       	brne	.-22     	; 0x23c6 <vfprintf+0x380>
    23dc:	06 c0       	rjmp	.+12     	; 0x23ea <vfprintf+0x3a4>
    23de:	80 e2       	ldi	r24, 0x20	; 32
    23e0:	90 e0       	ldi	r25, 0x00	; 0
    23e2:	b3 01       	movw	r22, r6
    23e4:	0e 94 3e 12 	call	0x247c	; 0x247c <fputc>
    23e8:	ea 94       	dec	r14
    23ea:	ee 20       	and	r14, r14
    23ec:	c1 f7       	brne	.-16     	; 0x23de <vfprintf+0x398>
    23ee:	43 ce       	rjmp	.-890    	; 0x2076 <vfprintf+0x30>
    23f0:	f3 01       	movw	r30, r6
    23f2:	66 81       	ldd	r22, Z+6	; 0x06
    23f4:	77 81       	ldd	r23, Z+7	; 0x07
    23f6:	cb 01       	movw	r24, r22
    23f8:	2b 96       	adiw	r28, 0x0b	; 11
    23fa:	e2 e1       	ldi	r30, 0x12	; 18
    23fc:	0c 94 e4 12 	jmp	0x25c8	; 0x25c8 <__epilogue_restores__>

00002400 <__eerd_block_m168>:
    2400:	dc 01       	movw	r26, r24
    2402:	cb 01       	movw	r24, r22

00002404 <__eerd_blraw_m168>:
    2404:	fc 01       	movw	r30, r24
    2406:	f9 99       	sbic	0x1f, 1	; 31
    2408:	fe cf       	rjmp	.-4      	; 0x2406 <__eerd_blraw_m168+0x2>
    240a:	06 c0       	rjmp	.+12     	; 0x2418 <__eerd_blraw_m168+0x14>
    240c:	f2 bd       	out	0x22, r31	; 34
    240e:	e1 bd       	out	0x21, r30	; 33
    2410:	f8 9a       	sbi	0x1f, 0	; 31
    2412:	31 96       	adiw	r30, 0x01	; 1
    2414:	00 b4       	in	r0, 0x20	; 32
    2416:	0d 92       	st	X+, r0
    2418:	41 50       	subi	r20, 0x01	; 1
    241a:	50 40       	sbci	r21, 0x00	; 0
    241c:	b8 f7       	brcc	.-18     	; 0x240c <__eerd_blraw_m168+0x8>
    241e:	08 95       	ret

00002420 <__eewr_block_m168>:
    2420:	dc 01       	movw	r26, r24
    2422:	cb 01       	movw	r24, r22
    2424:	03 c0       	rjmp	.+6      	; 0x242c <__eewr_block_m168+0xc>
    2426:	2d 91       	ld	r18, X+
    2428:	0e 94 1b 12 	call	0x2436	; 0x2436 <__eewr_r18_m168>
    242c:	41 50       	subi	r20, 0x01	; 1
    242e:	50 40       	sbci	r21, 0x00	; 0
    2430:	d0 f7       	brcc	.-12     	; 0x2426 <__eewr_block_m168+0x6>
    2432:	08 95       	ret

00002434 <__eewr_byte_m168>:
    2434:	26 2f       	mov	r18, r22

00002436 <__eewr_r18_m168>:
    2436:	f9 99       	sbic	0x1f, 1	; 31
    2438:	fe cf       	rjmp	.-4      	; 0x2436 <__eewr_r18_m168>
    243a:	1f ba       	out	0x1f, r1	; 31
    243c:	92 bd       	out	0x22, r25	; 34
    243e:	81 bd       	out	0x21, r24	; 33
    2440:	20 bd       	out	0x20, r18	; 32
    2442:	0f b6       	in	r0, 0x3f	; 63
    2444:	f8 94       	cli
    2446:	fa 9a       	sbi	0x1f, 2	; 31
    2448:	f9 9a       	sbi	0x1f, 1	; 31
    244a:	0f be       	out	0x3f, r0	; 63
    244c:	01 96       	adiw	r24, 0x01	; 1
    244e:	08 95       	ret

00002450 <strnlen_P>:
    2450:	fc 01       	movw	r30, r24
    2452:	05 90       	lpm	r0, Z+
    2454:	61 50       	subi	r22, 0x01	; 1
    2456:	70 40       	sbci	r23, 0x00	; 0
    2458:	01 10       	cpse	r0, r1
    245a:	d8 f7       	brcc	.-10     	; 0x2452 <strnlen_P+0x2>
    245c:	80 95       	com	r24
    245e:	90 95       	com	r25
    2460:	8e 0f       	add	r24, r30
    2462:	9f 1f       	adc	r25, r31
    2464:	08 95       	ret

00002466 <strnlen>:
    2466:	fc 01       	movw	r30, r24
    2468:	61 50       	subi	r22, 0x01	; 1
    246a:	70 40       	sbci	r23, 0x00	; 0
    246c:	01 90       	ld	r0, Z+
    246e:	01 10       	cpse	r0, r1
    2470:	d8 f7       	brcc	.-10     	; 0x2468 <strnlen+0x2>
    2472:	80 95       	com	r24
    2474:	90 95       	com	r25
    2476:	8e 0f       	add	r24, r30
    2478:	9f 1f       	adc	r25, r31
    247a:	08 95       	ret

0000247c <fputc>:
    247c:	0f 93       	push	r16
    247e:	1f 93       	push	r17
    2480:	cf 93       	push	r28
    2482:	df 93       	push	r29
    2484:	8c 01       	movw	r16, r24
    2486:	eb 01       	movw	r28, r22
    2488:	8b 81       	ldd	r24, Y+3	; 0x03
    248a:	81 ff       	sbrs	r24, 1
    248c:	1b c0       	rjmp	.+54     	; 0x24c4 <fputc+0x48>
    248e:	82 ff       	sbrs	r24, 2
    2490:	0d c0       	rjmp	.+26     	; 0x24ac <fputc+0x30>
    2492:	2e 81       	ldd	r18, Y+6	; 0x06
    2494:	3f 81       	ldd	r19, Y+7	; 0x07
    2496:	8c 81       	ldd	r24, Y+4	; 0x04
    2498:	9d 81       	ldd	r25, Y+5	; 0x05
    249a:	28 17       	cp	r18, r24
    249c:	39 07       	cpc	r19, r25
    249e:	64 f4       	brge	.+24     	; 0x24b8 <fputc+0x3c>
    24a0:	e8 81       	ld	r30, Y
    24a2:	f9 81       	ldd	r31, Y+1	; 0x01
    24a4:	01 93       	st	Z+, r16
    24a6:	f9 83       	std	Y+1, r31	; 0x01
    24a8:	e8 83       	st	Y, r30
    24aa:	06 c0       	rjmp	.+12     	; 0x24b8 <fputc+0x3c>
    24ac:	e8 85       	ldd	r30, Y+8	; 0x08
    24ae:	f9 85       	ldd	r31, Y+9	; 0x09
    24b0:	80 2f       	mov	r24, r16
    24b2:	09 95       	icall
    24b4:	89 2b       	or	r24, r25
    24b6:	31 f4       	brne	.+12     	; 0x24c4 <fputc+0x48>
    24b8:	8e 81       	ldd	r24, Y+6	; 0x06
    24ba:	9f 81       	ldd	r25, Y+7	; 0x07
    24bc:	01 96       	adiw	r24, 0x01	; 1
    24be:	9f 83       	std	Y+7, r25	; 0x07
    24c0:	8e 83       	std	Y+6, r24	; 0x06
    24c2:	02 c0       	rjmp	.+4      	; 0x24c8 <fputc+0x4c>
    24c4:	0f ef       	ldi	r16, 0xFF	; 255
    24c6:	1f ef       	ldi	r17, 0xFF	; 255
    24c8:	c8 01       	movw	r24, r16
    24ca:	df 91       	pop	r29
    24cc:	cf 91       	pop	r28
    24ce:	1f 91       	pop	r17
    24d0:	0f 91       	pop	r16
    24d2:	08 95       	ret

000024d4 <__ultoa_invert>:
    24d4:	fa 01       	movw	r30, r20
    24d6:	aa 27       	eor	r26, r26
    24d8:	28 30       	cpi	r18, 0x08	; 8
    24da:	51 f1       	breq	.+84     	; 0x2530 <__ultoa_invert+0x5c>
    24dc:	20 31       	cpi	r18, 0x10	; 16
    24de:	81 f1       	breq	.+96     	; 0x2540 <__ultoa_invert+0x6c>
    24e0:	e8 94       	clt
    24e2:	6f 93       	push	r22
    24e4:	6e 7f       	andi	r22, 0xFE	; 254
    24e6:	6e 5f       	subi	r22, 0xFE	; 254
    24e8:	7f 4f       	sbci	r23, 0xFF	; 255
    24ea:	8f 4f       	sbci	r24, 0xFF	; 255
    24ec:	9f 4f       	sbci	r25, 0xFF	; 255
    24ee:	af 4f       	sbci	r26, 0xFF	; 255
    24f0:	b1 e0       	ldi	r27, 0x01	; 1
    24f2:	3e d0       	rcall	.+124    	; 0x2570 <__ultoa_invert+0x9c>
    24f4:	b4 e0       	ldi	r27, 0x04	; 4
    24f6:	3c d0       	rcall	.+120    	; 0x2570 <__ultoa_invert+0x9c>
    24f8:	67 0f       	add	r22, r23
    24fa:	78 1f       	adc	r23, r24
    24fc:	89 1f       	adc	r24, r25
    24fe:	9a 1f       	adc	r25, r26
    2500:	a1 1d       	adc	r26, r1
    2502:	68 0f       	add	r22, r24
    2504:	79 1f       	adc	r23, r25
    2506:	8a 1f       	adc	r24, r26
    2508:	91 1d       	adc	r25, r1
    250a:	a1 1d       	adc	r26, r1
    250c:	6a 0f       	add	r22, r26
    250e:	71 1d       	adc	r23, r1
    2510:	81 1d       	adc	r24, r1
    2512:	91 1d       	adc	r25, r1
    2514:	a1 1d       	adc	r26, r1
    2516:	20 d0       	rcall	.+64     	; 0x2558 <__ultoa_invert+0x84>
    2518:	09 f4       	brne	.+2      	; 0x251c <__ultoa_invert+0x48>
    251a:	68 94       	set
    251c:	3f 91       	pop	r19
    251e:	2a e0       	ldi	r18, 0x0A	; 10
    2520:	26 9f       	mul	r18, r22
    2522:	11 24       	eor	r1, r1
    2524:	30 19       	sub	r19, r0
    2526:	30 5d       	subi	r19, 0xD0	; 208
    2528:	31 93       	st	Z+, r19
    252a:	de f6       	brtc	.-74     	; 0x24e2 <__ultoa_invert+0xe>
    252c:	cf 01       	movw	r24, r30
    252e:	08 95       	ret
    2530:	46 2f       	mov	r20, r22
    2532:	47 70       	andi	r20, 0x07	; 7
    2534:	40 5d       	subi	r20, 0xD0	; 208
    2536:	41 93       	st	Z+, r20
    2538:	b3 e0       	ldi	r27, 0x03	; 3
    253a:	0f d0       	rcall	.+30     	; 0x255a <__ultoa_invert+0x86>
    253c:	c9 f7       	brne	.-14     	; 0x2530 <__ultoa_invert+0x5c>
    253e:	f6 cf       	rjmp	.-20     	; 0x252c <__ultoa_invert+0x58>
    2540:	46 2f       	mov	r20, r22
    2542:	4f 70       	andi	r20, 0x0F	; 15
    2544:	40 5d       	subi	r20, 0xD0	; 208
    2546:	4a 33       	cpi	r20, 0x3A	; 58
    2548:	18 f0       	brcs	.+6      	; 0x2550 <__ultoa_invert+0x7c>
    254a:	49 5d       	subi	r20, 0xD9	; 217
    254c:	31 fd       	sbrc	r19, 1
    254e:	40 52       	subi	r20, 0x20	; 32
    2550:	41 93       	st	Z+, r20
    2552:	02 d0       	rcall	.+4      	; 0x2558 <__ultoa_invert+0x84>
    2554:	a9 f7       	brne	.-22     	; 0x2540 <__ultoa_invert+0x6c>
    2556:	ea cf       	rjmp	.-44     	; 0x252c <__ultoa_invert+0x58>
    2558:	b4 e0       	ldi	r27, 0x04	; 4
    255a:	a6 95       	lsr	r26
    255c:	97 95       	ror	r25
    255e:	87 95       	ror	r24
    2560:	77 95       	ror	r23
    2562:	67 95       	ror	r22
    2564:	ba 95       	dec	r27
    2566:	c9 f7       	brne	.-14     	; 0x255a <__ultoa_invert+0x86>
    2568:	00 97       	sbiw	r24, 0x00	; 0
    256a:	61 05       	cpc	r22, r1
    256c:	71 05       	cpc	r23, r1
    256e:	08 95       	ret
    2570:	9b 01       	movw	r18, r22
    2572:	ac 01       	movw	r20, r24
    2574:	0a 2e       	mov	r0, r26
    2576:	06 94       	lsr	r0
    2578:	57 95       	ror	r21
    257a:	47 95       	ror	r20
    257c:	37 95       	ror	r19
    257e:	27 95       	ror	r18
    2580:	ba 95       	dec	r27
    2582:	c9 f7       	brne	.-14     	; 0x2576 <__ultoa_invert+0xa2>
    2584:	62 0f       	add	r22, r18
    2586:	73 1f       	adc	r23, r19
    2588:	84 1f       	adc	r24, r20
    258a:	95 1f       	adc	r25, r21
    258c:	a0 1d       	adc	r26, r0
    258e:	08 95       	ret

00002590 <__prologue_saves__>:
    2590:	2f 92       	push	r2
    2592:	3f 92       	push	r3
    2594:	4f 92       	push	r4
    2596:	5f 92       	push	r5
    2598:	6f 92       	push	r6
    259a:	7f 92       	push	r7
    259c:	8f 92       	push	r8
    259e:	9f 92       	push	r9
    25a0:	af 92       	push	r10
    25a2:	bf 92       	push	r11
    25a4:	cf 92       	push	r12
    25a6:	df 92       	push	r13
    25a8:	ef 92       	push	r14
    25aa:	ff 92       	push	r15
    25ac:	0f 93       	push	r16
    25ae:	1f 93       	push	r17
    25b0:	cf 93       	push	r28
    25b2:	df 93       	push	r29
    25b4:	cd b7       	in	r28, 0x3d	; 61
    25b6:	de b7       	in	r29, 0x3e	; 62
    25b8:	ca 1b       	sub	r28, r26
    25ba:	db 0b       	sbc	r29, r27
    25bc:	0f b6       	in	r0, 0x3f	; 63
    25be:	f8 94       	cli
    25c0:	de bf       	out	0x3e, r29	; 62
    25c2:	0f be       	out	0x3f, r0	; 63
    25c4:	cd bf       	out	0x3d, r28	; 61
    25c6:	09 94       	ijmp

000025c8 <__epilogue_restores__>:
    25c8:	2a 88       	ldd	r2, Y+18	; 0x12
    25ca:	39 88       	ldd	r3, Y+17	; 0x11
    25cc:	48 88       	ldd	r4, Y+16	; 0x10
    25ce:	5f 84       	ldd	r5, Y+15	; 0x0f
    25d0:	6e 84       	ldd	r6, Y+14	; 0x0e
    25d2:	7d 84       	ldd	r7, Y+13	; 0x0d
    25d4:	8c 84       	ldd	r8, Y+12	; 0x0c
    25d6:	9b 84       	ldd	r9, Y+11	; 0x0b
    25d8:	aa 84       	ldd	r10, Y+10	; 0x0a
    25da:	b9 84       	ldd	r11, Y+9	; 0x09
    25dc:	c8 84       	ldd	r12, Y+8	; 0x08
    25de:	df 80       	ldd	r13, Y+7	; 0x07
    25e0:	ee 80       	ldd	r14, Y+6	; 0x06
    25e2:	fd 80       	ldd	r15, Y+5	; 0x05
    25e4:	0c 81       	ldd	r16, Y+4	; 0x04
    25e6:	1b 81       	ldd	r17, Y+3	; 0x03
    25e8:	aa 81       	ldd	r26, Y+2	; 0x02
    25ea:	b9 81       	ldd	r27, Y+1	; 0x01
    25ec:	ce 0f       	add	r28, r30
    25ee:	d1 1d       	adc	r29, r1
    25f0:	0f b6       	in	r0, 0x3f	; 63
    25f2:	f8 94       	cli
    25f4:	de bf       	out	0x3e, r29	; 62
    25f6:	0f be       	out	0x3f, r0	; 63
    25f8:	cd bf       	out	0x3d, r28	; 61
    25fa:	ed 01       	movw	r28, r26
    25fc:	08 95       	ret

000025fe <_exit>:
    25fe:	f8 94       	cli

00002600 <__stop_program>:
    2600:	ff cf       	rjmp	.-2      	; 0x2600 <__stop_program>
